(lp0
(VIt
p1
VO
p2
tp3
a(Vis
p4
g2
tp5
a(Vokay.
p6
g2
tp7
a(VI
p8
g2
tp9
a(Vwould
p10
g2
tp11
a(Vnot
p12
g2
tp13
a(Vgo
p14
g2
tp15
a(Vout
p16
g2
tp17
a(Vof
p18
g2
tp19
a(Vmy
p20
g2
tp21
a(Vway
p22
g2
tp23
a(Vto
p24
g2
tp25
a(Vbuy
p26
g2
tp27
a(Vit
p28
g2
tp29
a(Vagain
p30
g2
tp31
a.