(lp0
(VI
p1
VO
p2
tp3
a(Vhave
p4
g2
tp5
a(Vlived
p6
g2
tp7
a(Vout
p8
g2
tp9
a(Vof
p10
g2
tp11
a(Vthe
p12
g2
tp13
a(VUS
p14
VLOCATION
p15
tp16
a(Vfor
p17
g2
tp18
a(Vover
p19
g2
tp20
a(V7
p21
g2
tp22
a(Vyrs
p23
g2
tp24
a(Vnow,
p25
g2
tp26
a(Vand
p27
g2
tp28
a(g1
g2
tp29
a(Vso
p30
g2
tp31
a(Vmiss
p32
g2
tp33
a(Vmy
p34
g2
tp35
a(VTwizzlers!!
p36
g2
tp37
a(VWhen
p38
g2
tp39
a(g1
g2
tp40
a(Vgo
p41
g2
tp42
a(Vback
p43
g2
tp44
a(Vto
p45
g2
tp46
a(Vvisit
p47
g2
tp48
a(Vor
p49
g2
tp50
a(Vsomeone
p51
g2
tp52
a(Vvisits
p53
g2
tp54
a(Vme,
p55
g2
tp56
a(g1
g2
tp57
a(Valways
p58
g2
tp59
a(Vstock
p60
g2
tp61
a(Vup.
p62
g2
tp63
a(VAll
p64
g2
tp65
a(g1
g2
tp66
a(Vcan
p67
g2
tp68
a(Vsay
p69
g2
tp70
a(Vis
p71
g2
tp72
a(VYUM!Sell
p73
g2
tp74
a(Vthese
p75
g2
tp76
a(Vin
p77
g2
tp78
a(VMexico
p79
VLOCATION
p80
tp81
a(Vand
p82
g2
tp83
a(Vyou
p84
g2
tp85
a(Vwill
p86
g2
tp87
a(Vhave
p88
g2
tp89
a(Va
p90
g2
tp91
a(Vfaithful
p92
g2
tp93
a(Vbuyer,
p94
g2
tp95
a(Vmore
p96
g2
tp97
a(Voften
p98
g2
tp99
a(Vthan
p100
g2
tp101
a(VI'm
p102
g2
tp103
a(Vable
p104
g2
tp105
a(Vto
p106
g2
tp107
a(Vbuy
p108
g2
tp109
a(Vthem
p110
g2
tp111
a(Vright
p112
g2
tp113
a(Vnow.
p114
g2
tp115
a.