(lp0
(VThe
p1
VO
p2
tp3
a(Vvariety
p4
g2
tp5
a(Vpacks
p6
g2
tp7
a(Vtaste
p8
g2
tp9
a(Vgreat!I
p10
g2
tp11
a(Vhave
p12
g2
tp13
a(Vthem
p14
g2
tp15
a(Vevery
p16
g2
tp17
a(Vmorning.
p18
g2
tp19
a(VAt
p20
g2
tp21
a(V$0.30
p22
g2
tp23
a(Vcents
p24
g2
tp25
a(Vper
p26
g2
tp27
a(Vmeal,
p28
g2
tp29
a(VI
p30
g2
tp31
a(Vdon't
p32
g2
tp33
a(Vunderstand
p34
g2
tp35
a(Vwhy
p36
g2
tp37
a(Veveryone
p38
g2
tp39
a(Von
p40
g2
tp41
a(Vearth
p42
g2
tp43
a(Visn't
p44
g2
tp45
a(Vbuying
p46
g2
tp47
a(Vthis
p48
g2
tp49
a(Vstuff
p50
g2
tp51
a(Vup.Maple
p52
g2
tp53
a(Vand
p54
g2
tp55
a(Vbrown
p56
g2
tp57
a(Vsugar
p58
g2
tp59
a(Vis
p60
g2
tp61
a(Vterrific,
p62
g2
tp63
a(Vfollowed
p64
g2
tp65
a(Vby
p66
g2
tp67
a(Vapples
p68
g2
tp69
a(Vand
p70
g2
tp71
a(Vcinnamon,
p72
g2
tp73
a(Vfollowed
p74
g2
tp75
a(Vby
p76
g2
tp77
a(Vregular.
p78
g2
tp79
a(VYou
p80
g2
tp81
a(Vdon't
p82
g2
tp83
a(Vget
p84
g2
tp85
a(Vtired
p86
g2
tp87
a(Vof
p88
g2
tp89
a(Vthe
p90
g2
tp91
a(Vsame
p92
g2
tp93
a(Vole
p94
g2
tp95
a(Vthing,
p96
g2
tp97
a(Vand
p98
g2
tp99
a(Vthey
p100
g2
tp101
a(Vtaste
p102
g2
tp103
a(Vgreat.I
p104
g2
tp105
a(Vjust
p106
g2
tp107
a(Vboil
p108
g2
tp109
a(Vwater
p110
g2
tp111
a(Vfrom
p112
g2
tp113
a(Va
p114
g2
tp115
a(Vsmall
p116
g2
tp117
a(Vpot,
p118
g2
tp119
a(Vempty
p120
g2
tp121
a(Vthe
p122
g2
tp123
a(Vpacket
p124
g2
tp125
a(Vor
p126
g2
tp127
a(V2
p128
g2
tp129
a(Vin
p130
g2
tp131
a(g114
g2
tp132
a(Vbowl,
p133
g2
tp134
a(Vpour
p135
g2
tp136
a(Vin
p137
g2
tp138
a(Vboiling
p139
g2
tp140
a(Vwater,
p141
g2
tp142
a(Vand
p143
g2
tp144
a(Vwatch
p145
g2
tp146
a(Vit
p147
g2
tp148
a(Vexpand
p149
g2
tp150
a(Vto
p151
g2
tp152
a(V2x
p153
g2
tp154
a(Vits
p155
g2
tp156
a(Vsize!Taste
p157
g2
tp158
a(Vreally
p159
g2
tp160
a(Vgood
p161
g2
tp162
a(Vand
p163
g2
tp164
a(Vtakes
p165
g2
tp166
a(Vminutes
p167
g2
tp168
a(Vto
p169
g2
tp170
a(Vprepare.Not
p171
g2
tp172
a(Vsure
p173
g2
tp174
a(Vwhy
p175
g2
tp176
a(Veveryone
p177
g2
tp178
a(Von
p179
g2
tp180
a(Vearth
p181
g2
tp182
a(Visn't
p183
g2
tp184
a(Vthis.
p185
g2
tp186
a(VConvenient,
p187
g2
tp188
a(Vhealthy,
p189
g2
tp190
a(Vvery
p191
g2
tp192
a(Vquick,
p193
g2
tp194
a(Vexcellent
p195
g2
tp196
a(Vquality,
p197
g2
tp198
a(Vand
p199
g2
tp200
a(Vextremely
p201
g2
tp202
a(Vcheap...
p203
g2
tp204
a.