(lp0
(VWhat
p1
VO
p2
tp3
a(Velse
p4
g2
tp5
a(Vdo
p6
g2
tp7
a(Vyou
p8
g2
tp9
a(Vneed
p10
g2
tp11
a(Vto
p12
g2
tp13
a(Vknow?
p14
g2
tp15
a(VOatmeal,
p16
g2
tp17
a(Vinstant
p18
g2
tp19
a(V(make
p20
g2
tp21
a(Vit
p22
g2
tp23
a(Vwith
p24
g2
tp25
a(Va
p26
g2
tp27
a(Vhalf
p28
g2
tp29
a(Vcup
p30
g2
tp31
a(Vof
p32
g2
tp33
a(Vlow-fat
p34
g2
tp35
a(Vmilk
p36
g2
tp37
a(Vand
p38
g2
tp39
a(Vadd
p40
g2
tp41
a(Vraisins;nuke
p42
g2
tp43
a(Vfor
p44
g2
tp45
a(V90
p46
g2
tp47
a(Vseconds).
p48
g2
tp49
a(VMore
p50
g2
tp51
a(Vexpensive
p52
g2
tp53
a(Vthan
p54
g2
tp55
a(VKroger
p56
VORGANIZATION
p57
tp58
a(Vstore
p59
g2
tp60
a(Vbrand
p61
g2
tp62
a(Voatmeal
p63
g2
tp64
a(Vand
p65
g2
tp66
a(Vmaybe
p67
g2
tp68
a(g26
g2
tp69
a(Vlittle
p70
g2
tp71
a(Vtastier
p72
g2
tp73
a(Vor
p74
g2
tp75
a(Vbetter
p76
g2
tp77
a(Vtexture
p78
g2
tp79
a(Vor
p80
g2
tp81
a(Vsomething.
p82
g2
tp83
a(VIt's
p84
g2
tp85
a(Vstill
p86
g2
tp87
a(Vjust
p88
g2
tp89
a(Voatmeal.
p90
g2
tp91
a(VMmm,
p92
g2
tp93
a(Vconvenient!
p94
g2
tp95
a.