(lp0
(VThis
p1
VO
p2
tp3
a(Vproduct
p4
g2
tp5
a(Vserves
p6
g2
tp7
a(Vme
p8
g2
tp9
a(Vwell
p10
g2
tp11
a(Vas
p12
g2
tp13
a(Va
p14
g2
tp15
a(Vsource
p16
g2
tp17
a(Vof
p18
g2
tp19
a(Velectrolytes
p20
g2
tp21
a(Vduring
p22
g2
tp23
a(Vand
p24
g2
tp25
a(Vafter
p26
g2
tp27
a(g14
g2
tp28
a(Vlong
p29
g2
tp30
a(Vrun
p31
g2
tp32
a(Vor
p33
g2
tp34
a(Vbike
p35
g2
tp36
a(Vride.I
p37
g2
tp38
a(Vhave
p39
g2
tp40
a(Vtried
p41
g2
tp42
a(Vall
p43
g2
tp44
a(Vof
p45
g2
tp46
a(Vthe
p47
g2
tp48
a(Vflavors
p49
g2
tp50
a(Vbut
p51
g2
tp52
a(Vreally
p53
g2
tp54
a(Vdo
p55
g2
tp56
a(Vlike
p57
g2
tp58
a(Vthe
p59
g2
tp60
a(Vgrapefruit
p61
g2
tp62
a(Vflavor...
p63
g2
tp64
a(Vno
p65
g2
tp66
a(Vafter-taste
p67
g2
tp68
a(Vand
p69
g2
tp70
a(VI
p71
g2
tp72
a(Vactually
p73
g2
tp74
a(Vlike
p75
g2
tp76
a(Vthe
p77
g2
tp78
a(Vslight
p79
g2
tp80
a(Vcarbonation.I
p81
g2
tp82
a(Vuse
p83
g2
tp84
a(Vother
p85
g2
tp86
a(VHammer
p87
g2
tp88
a(Vproducts
p89
g2
tp90
a(Vand
p91
g2
tp92
a(Vreally
p93
g2
tp94
a(Vlike
p95
g2
tp96
a(Vtheir
p97
g2
tp98
a(Vwhole
p99
g2
tp100
a(Vproduct
p101
g2
tp102
a(Vline.
p103
g2
tp104
a.