(lp0
(VGreat
p1
VO
p2
tp3
a(Vgift
p4
g2
tp5
a(Vfor
p6
g2
tp7
a(Vall
p8
g2
tp9
a(Vages!
p10
g2
tp11
a(VI
p12
g2
tp13
a(Vpurchased
p14
g2
tp15
a(Vthese
p16
g2
tp17
a(Vgiant
p18
g2
tp19
a(Vcanes
p20
g2
tp21
a(Vbefore
p22
g2
tp23
a(Vand
p24
g2
tp25
a(Vthe
p26
g2
tp27
a(Vrecipients
p28
g2
tp29
a(Vloved
p30
g2
tp31
a(Vthem
p32
g2
tp33
a(Vso
p34
g2
tp35
a(Vmuch,
p36
g2
tp37
a(Vthey
p38
g2
tp39
a(Vkept
p40
g2
tp41
a(Vthem
p42
g2
tp43
a(Vand
p44
g2
tp45
a(Vwould
p46
g2
tp47
a(Vnot
p48
g2
tp49
a(Veat
p50
g2
tp51
a(Vthem.
p52
g2
tp53
a.