(lp0
(VThis
p1
VO
p2
tp3
a(Voffer
p4
g2
tp5
a(Vis
p6
g2
tp7
a(Va
p8
g2
tp9
a(Vgreat
p10
g2
tp11
a(Vprice
p12
g2
tp13
a(Vand
p14
g2
tp15
a(g8
g2
tp16
a(Vgreat
p17
g2
tp18
a(Vtaste,
p19
g2
tp20
a(Vthanks
p21
g2
tp22
a(VAmazon
p23
VLOCATION
p24
tp25
a(Vfor
p26
g2
tp27
a(Vselling
p28
g2
tp29
a(Vthis
p30
g2
tp31
a(Vproduct.Staral
p32
g2
tp33
a.