(lp0
(VHalloween
p1
VO
p2
tp3
a(Vis
p4
g2
tp5
a(Vover
p6
g2
tp7
a(Vbut,
p8
g2
tp9
a(VI
p10
g2
tp11
a(Vsent
p12
g2
tp13
a(Va
p14
g2
tp15
a(Vbag
p16
g2
tp17
a(Vto
p18
g2
tp19
a(Vmy
p20
g2
tp21
a(Vdaughters
p22
g2
tp23
a(Vclass
p24
g2
tp25
a(Vfor
p26
g2
tp27
a(Vher
p28
g2
tp29
a(Vshare.
p30
g2
tp31
a(VThe
p32
g2
tp33
a(Vchocolate
p34
g2
tp35
a(Vwas
p36
g2
tp37
a(Vfresh
p38
g2
tp39
a(Vand
p40
g2
tp41
a(Venjoyed
p42
g2
tp43
a(Vby
p44
g2
tp45
a(Vmany.
p46
g2
tp47
a.