(lp0
(VWe
p1
VO
p2
tp3
a(Vreally
p4
g2
tp5
a(Vlike
p6
g2
tp7
a(Vthe
p8
g2
tp9
a(VMcCann's
p10
g2
tp11
a(Vsteel
p12
g2
tp13
a(Vcut
p14
g2
tp15
a(Voats
p16
g2
tp17
a(Vbut
p18
g2
tp19
a(Vfind
p20
g2
tp21
a(Vwe
p22
g2
tp23
a(Vdon't
p24
g2
tp25
a(Vcook
p26
g2
tp27
a(Vit
p28
g2
tp29
a(Vup
p30
g2
tp31
a(Vtoo
p32
g2
tp33
a(Voften.This
p34
g2
tp35
a(Vtastes
p36
g2
tp37
a(Vmuch
p38
g2
tp39
a(Vbetter
p40
g2
tp41
a(Vto
p42
g2
tp43
a(Vme
p44
g2
tp45
a(Vthan
p46
g2
tp47
a(Vthe
p48
g2
tp49
a(Vgrocery
p50
g2
tp51
a(Vstore
p52
g2
tp53
a(Vbrands
p54
g2
tp55
a(Vand
p56
g2
tp57
a(Vis
p58
g2
tp59
a(Vjust
p60
g2
tp61
a(Vas
p62
g2
tp63
a(Vconvenient.Anything
p64
g2
tp65
a(Vthat
p66
g2
tp67
a(Vkeeps
p68
g2
tp69
a(Vme
p70
g2
tp71
a(Veating
p72
g2
tp73
a(Voatmeal
p74
g2
tp75
a(Vregularly
p76
g2
tp77
a(Vis
p78
g2
tp79
a(Va
p80
g2
tp81
a(Vgood
p82
g2
tp83
a(Vthing.
p84
g2
tp85
a.