(lp0
(VI
p1
VO
p2
tp3
a(Vam
p4
g2
tp5
a(Vvery
p6
g2
tp7
a(Vsatisfied
p8
g2
tp9
a(Vwith
p10
g2
tp11
a(Vmy
p12
g2
tp13
a(VTwizzler
p14
g2
tp15
a(Vpurchase.
p16
g2
tp17
a(g1
g2
tp18
a(Vshared
p19
g2
tp20
a(Vthese
p21
g2
tp22
a(Vwith
p23
g2
tp24
a(Vothers
p25
g2
tp26
a(Vand
p27
g2
tp28
a(Vwe
p29
g2
tp30
a(Vhave
p31
g2
tp32
a(Vall
p33
g2
tp34
a(Venjoyed
p35
g2
tp36
a(Vthem.
p37
g2
tp38
a(g1
g2
tp39
a(Vwill
p40
g2
tp41
a(Vdefinitely
p42
g2
tp43
a(Vbe
p44
g2
tp45
a(Vordering
p46
g2
tp47
a(Vmore.
p48
g2
tp49
a.