(lp0
(VThis
p1
VO
p2
tp3
a(Voatmeal
p4
g2
tp5
a(Vis
p6
g2
tp7
a(Vnot
p8
g2
tp9
a(Vgood.
p10
g2
tp11
a(VIts
p12
g2
tp13
a(Vmushy,
p14
g2
tp15
a(Vsoft,
p16
g2
tp17
a(VI
p18
g2
tp19
a(Vdon't
p20
g2
tp21
a(Vlike
p22
g2
tp23
a(Vit.
p24
g2
tp25
a(VQuaker
p26
VORGANIZATION
p27
tp28
a(VOats
p29
VORGANIZATION
p30
tp31
a(Vis
p32
g2
tp33
a(Vthe
p34
g2
tp35
a(Vway
p36
g2
tp37
a(Vto
p38
g2
tp39
a(Vgo.
p40
g2
tp41
a.