(lp0
(VGreat
p1
VO
p2
tp3
a(Vtaffy
p4
g2
tp5
a(Vat
p6
g2
tp7
a(Va
p8
g2
tp9
a(Vgreat
p10
g2
tp11
a(Vprice.
p12
g2
tp13
a(VThere
p14
g2
tp15
a(Vwas
p16
g2
tp17
a(g8
g2
tp18
a(Vwide
p19
g2
tp20
a(Vassortment
p21
g2
tp22
a(Vof
p23
g2
tp24
a(Vyummy
p25
g2
tp26
a(Vtaffy.
p27
g2
tp28
a(VDelivery
p29
g2
tp30
a(Vwas
p31
g2
tp32
a(Vvery
p33
g2
tp34
a(Vquick.
p35
g2
tp36
a(VIf
p37
g2
tp38
a(Vyour
p39
g2
tp40
a(g8
g2
tp41
a(Vtaffy
p42
g2
tp43
a(Vlover,
p44
g2
tp45
a(Vthis
p46
g2
tp47
a(Vis
p48
g2
tp49
a(g8
g2
tp50
a(Vdeal.
p51
g2
tp52
a.