(lp0
(Vgood
p1
VO
p2
tp3
a(Vflavor!
p4
g2
tp5
a(Vthese
p6
g2
tp7
a(Vcame
p8
g2
tp9
a(Vsecurely
p10
g2
tp11
a(Vpacked...
p12
g2
tp13
a(Vthey
p14
g2
tp15
a(Vwere
p16
g2
tp17
a(Vfresh
p18
g2
tp19
a(Vand
p20
g2
tp21
a(Vdelicious!
p22
g2
tp23
a(Vi
p24
g2
tp25
a(Vlove
p26
g2
tp27
a(Vthese
p28
g2
tp29
a(VTwizzlers!
p30
g2
tp31
a.