(lp0
(VThese
p1
VO
p2
tp3
a(Vlooked
p4
g2
tp5
a(Vlike
p6
g2
tp7
a(Va
p8
g2
tp9
a(Vperfect
p10
g2
tp11
a(Vsnack
p12
g2
tp13
a(Vto
p14
g2
tp15
a(Vthrough
p16
g2
tp17
a(Vin
p18
g2
tp19
a(Vwith
p20
g2
tp21
a(Vmy
p22
g2
tp23
a(Vtrail
p24
g2
tp25
a(Vmix.
p26
g2
tp27
a(VUnfortunately,
p28
g2
tp29
a(Vthey
p30
g2
tp31
a(Varrived
p32
g2
tp33
a(Vin
p34
g2
tp35
a(g8
g2
tp36
a(Vsolid
p37
g2
tp38
a(Vmass
p39
g2
tp40
a(Vof
p41
g2
tp42
a(Vmelted
p43
g2
tp44
a(Vchocolate.
p45
g2
tp46
a(VI
p47
g2
tp48
a(Vleft
p49
g2
tp50
a(Vthem
p51
g2
tp52
a(Vin
p53
g2
tp54
a(Vmy
p55
g2
tp56
a(Vpantry
p57
g2
tp58
a(Vfor
p59
g2
tp60
a(g8
g2
tp61
a(Vfew
p62
g2
tp63
a(Vdays,
p64
g2
tp65
a(Vand
p66
g2
tp67
a(Vwhen
p68
g2
tp69
a(g47
g2
tp70
a(Vopened
p71
g2
tp72
a(Vthem
p73
g2
tp74
a(Vat
p75
g2
tp76
a(Vroom
p77
g2
tp78
a(Vtemperature
p79
g2
tp80
a(Vthey
p81
g2
tp82
a(Vwere
p83
g2
tp84
a(Vstill
p85
g2
tp86
a(Vgooey.
p87
g2
tp88
a(g47
g2
tp89
a(Vthrough
p90
g2
tp91
a(Vthem
p92
g2
tp93
a(Vin
p94
g2
tp95
a(Vthe
p96
g2
tp97
a(Vfridge
p98
g2
tp99
a(Vand
p100
g2
tp101
a(VI've
p102
g2
tp103
a(Vbeen
p104
g2
tp105
a(Vbreaking
p106
g2
tp107
a(Voff
p108
g2
tp109
a(Vhunks
p110
g2
tp111
a(Vever
p112
g2
tp113
a(Vsince.
p114
g2
tp115
a(VThey
p116
g2
tp117
a(Vtaste
p118
g2
tp119
a(Vgood
p120
g2
tp121
a(Vto
p122
g2
tp123
a(Vme,
p124
g2
tp125
a(Vbut
p126
g2
tp127
a(Vthe
p128
g2
tp129
a(Vchocolate
p130
g2
tp131
a(Vis
p132
g2
tp133
a(Vall
p134
g2
tp135
a(Vgrainy
p136
g2
tp137
a(Vafter
p138
g2
tp139
a(Vmelting
p140
g2
tp141
a(Vand
p142
g2
tp143
a(Vthen
p144
g2
tp145
a(Vsolidifying
p146
g2
tp147
a(Vagain.
p148
g2
tp149
a(g47
g2
tp150
a(Vwon't
p151
g2
tp152
a(Vorder
p153
g2
tp154
a(Vthem
p155
g2
tp156
a(Vonline
p157
g2
tp158
a(Vagain,
p159
g2
tp160
a(Vbut
p161
g2
tp162
a(Vif
p163
g2
tp164
a(g47
g2
tp165
a(Vsee
p166
g2
tp167
a(Vthem
p168
g2
tp169
a(Vin
p170
g2
tp171
a(g8
g2
tp172
a(Vstore
p173
g2
tp174
a(g47
g2
tp175
a(Vwould
p176
g2
tp177
a(Vpick
p178
g2
tp179
a(Vthem
p180
g2
tp181
a(Vup.
p182
g2
tp183
a.