(lp0
(VRight
p1
VO
p2
tp3
a(Vnow
p4
g2
tp5
a(VI'm
p6
g2
tp7
a(Vmostly
p8
g2
tp9
a(Vjust
p10
g2
tp11
a(Vsprouting
p12
g2
tp13
a(Vthis
p14
g2
tp15
a(Vso
p16
g2
tp17
a(Vmy
p18
g2
tp19
a(Vcats
p20
g2
tp21
a(Vcan
p22
g2
tp23
a(Veat
p24
g2
tp25
a(Vthe
p26
g2
tp27
a(Vgrass.
p28
g2
tp29
a(VThey
p30
g2
tp31
a(Vlove
p32
g2
tp33
a(Vit.
p34
g2
tp35
a(VI
p36
g2
tp37
a(Vrotate
p38
g2
tp39
a(Vit
p40
g2
tp41
a(Varound
p42
g2
tp43
a(Vwith
p44
g2
tp45
a(VWheatgrass
p46
g2
tp47
a(Vand
p48
g2
tp49
a(VRye
p50
g2
tp51
a(Vtoo
p52
g2
tp53
a.