(lp0
(VThis
p1
VO
p2
tp3
a(Vsaltwater
p4
g2
tp5
a(Vtaffy
p6
g2
tp7
a(Vhad
p8
g2
tp9
a(Vgreat
p10
g2
tp11
a(Vflavors
p12
g2
tp13
a(Vand
p14
g2
tp15
a(Vwas
p16
g2
tp17
a(Vvery
p18
g2
tp19
a(Vsoft
p20
g2
tp21
a(Vand
p22
g2
tp23
a(Vchewy.
p24
g2
tp25
a(VEach
p26
g2
tp27
a(Vcandy
p28
g2
tp29
a(Vwas
p30
g2
tp31
a(Vindividually
p32
g2
tp33
a(Vwrapped
p34
g2
tp35
a(Vwell.
p36
g2
tp37
a(VNone
p38
g2
tp39
a(Vof
p40
g2
tp41
a(Vthe
p42
g2
tp43
a(Vcandies
p44
g2
tp45
a(Vwere
p46
g2
tp47
a(Vstuck
p48
g2
tp49
a(Vtogether,
p50
g2
tp51
a(Vwhich
p52
g2
tp53
a(Vdid
p54
g2
tp55
a(Vhappen
p56
g2
tp57
a(Vin
p58
g2
tp59
a(Vthe
p60
g2
tp61
a(Vexpensive
p62
g2
tp63
a(Vversion,
p64
g2
tp65
a(VFralinger's.
p66
g2
tp67
a(VWould
p68
g2
tp69
a(Vhighly
p70
g2
tp71
a(Vrecommend
p72
g2
tp73
a(Vthis
p74
g2
tp75
a(Vcandy!
p76
g2
tp77
a(VI
p78
g2
tp79
a(Vserved
p80
g2
tp81
a(Vit
p82
g2
tp83
a(Vat
p84
g2
tp85
a(Va
p86
g2
tp87
a(Vbeach-themed
p88
g2
tp89
a(Vparty
p90
g2
tp91
a(Vand
p92
g2
tp93
a(Veveryone
p94
g2
tp95
a(Vloved
p96
g2
tp97
a(Vit!
p98
g2
tp99
a.