(lp0
(VInstant
p1
VO
p2
tp3
a(Voatmeal
p4
g2
tp5
a(Vcan
p6
g2
tp7
a(Vbecome
p8
g2
tp9
a(Vsoggy
p10
g2
tp11
a(Vthe
p12
g2
tp13
a(Vminute
p14
g2
tp15
a(Vthe
p16
g2
tp17
a(Vwater
p18
g2
tp19
a(Vhits
p20
g2
tp21
a(Vthe
p22
g2
tp23
a(Vbowl.
p24
g2
tp25
a(VMcCann's
p26
g2
tp27
a(VInstant
p28
g2
tp29
a(VOatmeal
p30
g2
tp31
a(Vholds
p32
g2
tp33
a(Vits
p34
g2
tp35
a(Vtexture,
p36
g2
tp37
a(Vhas
p38
g2
tp39
a(Vexcellent
p40
g2
tp41
a(Vflavor,
p42
g2
tp43
a(Vand
p44
g2
tp45
a(Vis
p46
g2
tp47
a(Vgood
p48
g2
tp49
a(Vfor
p50
g2
tp51
a(Vyou
p52
g2
tp53
a(Vall
p54
g2
tp55
a(Vat
p56
g2
tp57
a(Vthe
p58
g2
tp59
a(Vsame
p60
g2
tp61
a(Vtime.
p62
g2
tp63
a(VMcCann's
p64
g2
tp65
a(Vregular
p66
g2
tp67
a(Voat
p68
g2
tp69
a(Vmeal
p70
g2
tp71
a(Vis
p72
g2
tp73
a(Vexcellent,
p74
g2
tp75
a(Vtoo,
p76
g2
tp77
a(Vbut
p78
g2
tp79
a(Vmay
p80
g2
tp81
a(Vtake
p82
g2
tp83
a(Va
p84
g2
tp85
a(Vbit
p86
g2
tp87
a(Vlonger
p88
g2
tp89
a(Vto
p90
g2
tp91
a(Vprepare
p92
g2
tp93
a(Vthan
p94
g2
tp95
a(Vmost
p96
g2
tp97
a(Vhave
p98
g2
tp99
a(Vtime
p100
g2
tp101
a(Vfor
p102
g2
tp103
a(Vin
p104
g2
tp105
a(Vthe
p106
g2
tp107
a(Vmorning.
p108
g2
tp109
a(VThis
p110
g2
tp111
a(Vis
p112
g2
tp113
a(Vthe
p114
g2
tp115
a(Vbest
p116
g2
tp117
a(Vinstant
p118
g2
tp119
a(Vbrand
p120
g2
tp121
a(VI've
p122
g2
tp123
a(Vever
p124
g2
tp125
a(Veaten,
p126
g2
tp127
a(Vand
p128
g2
tp129
a(g84
g2
tp130
a(Vvery
p131
g2
tp132
a(Vclose
p133
g2
tp134
a(Vsecond
p135
g2
tp136
a(Vto
p137
g2
tp138
a(Vthe
p139
g2
tp140
a(Vnon-instant
p141
g2
tp142
a(Vvariety.McCann's
p143
g2
tp144
a(VInstant
p145
g2
tp146
a(VIrish
p147
g2
tp148
a(VOatmeal,
p149
g2
tp150
a(VVariety
p151
g2
tp152
a(VPack
p153
g2
tp154
a(Vof
p155
g2
tp156
a(VRegular,
p157
g2
tp158
a(VApples
p159
g2
tp160
a(V&
p161
g2
tp162
a(VCinnamon,
p163
g2
tp164
a(Vand
p165
g2
tp166
a(VMaple
p167
g2
tp168
a(g161
g2
tp169
a(VBrown
p170
g2
tp171
a(VSugar,
p172
g2
tp173
a(V10-Count
p174
g2
tp175
a(VBoxes
p176
g2
tp177
a(V(Pack
p178
g2
tp179
a(Vof
p180
g2
tp181
a(V6)
p182
g2
tp183
a.