(lp0
(VThe
p1
VO
p2
tp3
a(Vtaste
p4
g2
tp5
a(Vwas
p6
g2
tp7
a(Vgreat,
p8
g2
tp9
a(Vbut
p10
g2
tp11
a(Vthe
p12
g2
tp13
a(Vberries
p14
g2
tp15
a(Vhad
p16
g2
tp17
a(Vmelted.
p18
g2
tp19
a(VMay
p20
g2
tp21
a(Vorder
p22
g2
tp23
a(Vagain
p24
g2
tp25
a(Vin
p26
g2
tp27
a(Vwinter.
p28
g2
tp29
a(VIf
p30
g2
tp31
a(Vyou
p32
g2
tp33
a(Vorder
p34
g2
tp35
a(Vin
p36
g2
tp37
a(Vcold
p38
g2
tp39
a(Vweather
p40
g2
tp41
a(Vyou
p42
g2
tp43
a(Vshould
p44
g2
tp45
a(Venjoy
p46
g2
tp47
a(Vflavor.
p48
g2
tp49
a.