(lp0
(VI
p1
VO
p2
tp3
a(Vhave
p4
g2
tp5
a(Vused
p6
g2
tp7
a(Vthe
p8
g2
tp9
a(Vendurolyte
p10
g2
tp11
a(Vproduct
p12
g2
tp13
a(Vfor
p14
g2
tp15
a(Vseveral
p16
g2
tp17
a(Vyears
p18
g2
tp19
a(Vin
p20
g2
tp21
a(Vboth
p22
g2
tp23
a(Vpill
p24
g2
tp25
a(Vand
p26
g2
tp27
a(Vpowder
p28
g2
tp29
a(Vform.
p30
g2
tp31
a(VLong
p32
g2
tp33
a(Vdesert
p34
g2
tp35
a(Vrides
p36
g2
tp37
a(Von
p38
g2
tp39
a(Vthe
p40
g2
tp41
a(Vdirt
p42
g2
tp43
a(Vbike
p44
g2
tp45
a(Valways
p46
g2
tp47
a(Vfound
p48
g2
tp49
a(Vmy
p50
g2
tp51
a(Vcamelbak
p52
g2
tp53
a(Vwater
p54
g2
tp55
a(Vheavily
p56
g2
tp57
a(Vlaced
p58
g2
tp59
a(Vwith
p60
g2
tp61
a(Vthe
p62
g2
tp63
a(Vendurolyte
p64
g2
tp65
a(Vpowder,
p66
g2
tp67
a(Vnot
p68
g2
tp69
a(Voverly
p70
g2
tp71
a(Vtasty,
p72
g2
tp73
a(Vbut
p74
g2
tp75
a(Vquite
p76
g2
tp77
a(Veffective,
p78
g2
tp79
a(Vas
p80
g2
tp81
a(g1
g2
tp82
a(Vnever
p83
g2
tp84
a(Vgot
p85
g2
tp86
a(Va
p87
g2
tp88
a(Vcramp
p89
g2
tp90
a(Von
p91
g2
tp92
a(Vthese
p93
g2
tp94
a(Vseveral
p95
g2
tp96
a(Vhundred
p97
g2
tp98
a(Vmile
p99
g2
tp100
a(Vrides.
p101
g2
tp102
a(VSame
p103
g2
tp104
a(Vfor
p105
g2
tp106
a(Vdesert
p107
g2
tp108
a(Vracing
p109
g2
tp110
a(Vin
p111
g2
tp112
a(Vthe
p113
g2
tp114
a(Vbuggy,
p115
g2
tp116
a(Vthe
p117
g2
tp118
a(Vcamelbaks
p119
g2
tp120
a(Vwere
p121
g2
tp122
a(Valways
p123
g2
tp124
a(Vlaced
p125
g2
tp126
a(Vwith
p127
g2
tp128
a(Vthe
p129
g2
tp130
a(Vpowder.
p131
g2
tp132
a(VNow
p133
g2
tp134
a(Vwe
p135
g2
tp136
a(Vhave
p137
g2
tp138
a(Vthe
p139
g2
tp140
a(VFizz...what
p141
g2
tp142
a(g87
g2
tp143
a(Vgreat
p144
g2
tp145
a(Vproduct!
p146
g2
tp147
a(VFirstly,
p148
g2
tp149
a(Vits
p150
g2
tp151
a(VHammer's
p152
g2
tp153
a(Vendurolyte
p154
g2
tp155
a(Vproduct
p156
g2
tp157
a(Vso
p158
g2
tp159
a(Vit's
p160
g2
tp161
a(Vgreat,
p162
g2
tp163
a(Vendurance
p164
g2
tp165
a(Vathlete's
p166
g2
tp167
a(Vthe
p168
g2
tp169
a(Vworld
p170
g2
tp171
a(Vover
p172
g2
tp173
a(Vuse
p174
g2
tp175
a(Vtheir
p176
g2
tp177
a(Vproducts.
p178
g2
tp179
a(VSecond
p180
g2
tp181
a(Vits
p182
g2
tp183
a(Vconvenient,
p184
g2
tp185
a(Vhandly
p186
g2
tp187
a(Vtablets
p188
g2
tp189
a(Vthat
p190
g2
tp191
a(Vdissovle
p192
g2
tp193
a(Vin
p194
g2
tp195
a(g87
g2
tp196
a(Vfizz.
p197
g2
tp198
a(VThird
p199
g2
tp200
a(Vit
p201
g2
tp202
a(Vtastes
p203
g2
tp204
a(Vgreat!
p205
g2
tp206
a(VImagine
p207
g2
tp208
a(Vgetting
p209
g2
tp210
a(g87
g2
tp211
a(Vnice
p212
g2
tp213
a(Vcool
p214
g2
tp215
a(Vdrink
p216
g2
tp217
a(Vwhen
p218
g2
tp219
a(Vyour
p220
g2
tp221
a(Vbody
p222
g2
tp223
a(Vis
p224
g2
tp225
a(Vstarving
p226
g2
tp227
a(Vfor
p228
g2
tp229
a(Vhydration
p230
g2
tp231
a(Vand
p232
g2
tp233
a(Velectrolytes
p234
g2
tp235
a(Vand
p236
g2
tp237
a(Vrather
p238
g2
tp239
a(Vthan
p240
g2
tp241
a(Vgetting
p242
g2
tp243
a(g87
g2
tp244
a(V"salty"
p245
g2
tp246
a(Vtaste,
p247
g2
tp248
a(Vyou
p249
g2
tp250
a(Vget
p251
g2
tp252
a(g87
g2
tp253
a(Vrefreshing
p254
g2
tp255
a(Vlemon-lime
p256
g2
tp257
a(Vor
p258
g2
tp259
a(Vmango!
p260
g2
tp261
a(VThe
p262
g2
tp263
a(Vcamelbaks
p264
g2
tp265
a(Valways
p266
g2
tp267
a(Vget
p268
g2
tp269
a(Vthe
p270
g2
tp271
a(VFizz
p272
g2
tp273
a(Vnow.
p274
g2
tp275
a(g1
g2
tp276
a(Valso
p277
g2
tp278
a(Vdrop
p279
g2
tp280
a(g87
g2
tp281
a(Vtablet
p282
g2
tp283
a(Vin
p284
g2
tp285
a(Vmy
p286
g2
tp287
a(Vbottled
p288
g2
tp289
a(Vwater
p290
g2
tp291
a(Vwhenever
p292
g2
tp293
a(g1
g2
tp294
a(Vexercise
p295
g2
tp296
a(Vand
p297
g2
tp298
a(Vhave
p299
g2
tp300
a(g87
g2
tp301
a(Vnice
p302
g2
tp303
a(Vflavored
p304
g2
tp305
a(Vwater
p306
g2
tp307
a(Vchock
p308
g2
tp309
a(Vfull
p310
g2
tp311
a(Vof
p312
g2
tp313
a(Velectrolytes.
p314
g2
tp315
a(g1
g2
tp316
a(Vcannot
p317
g2
tp318
a(Vrecommend
p319
g2
tp320
a(Vthis
p321
g2
tp322
a(Vproduct
p323
g2
tp324
a(Vor
p325
g2
tp326
a(Vany
p327
g2
tp328
a(Vhammer
p329
g2
tp330
a(Vproduct
p331
g2
tp332
a(Vhighly
p333
g2
tp334
a(Venough.
p335
g2
tp336
a.