(lp0
(VThis
p1
VO
p2
tp3
a(Vwasn't
p4
g2
tp5
a(Vin
p6
g2
tp7
a(Vstock
p8
g2
tp9
a(Vthe
p10
g2
tp11
a(Vlast
p12
g2
tp13
a(Vtime
p14
g2
tp15
a(VI
p16
g2
tp17
a(Vlooked.
p18
g2
tp19
a(g16
g2
tp20
a(Vhad
p21
g2
tp22
a(Vto
p23
g2
tp24
a(Vgo
p25
g2
tp26
a(Vto
p27
g2
tp28
a(Vthe
p29
g2
tp30
a(VVermont
p31
VORGANIZATION
p32
tp33
a(VCountry
p34
VORGANIZATION
p35
tp36
a(VStore
p37
VORGANIZATION
p38
tp39
a(Vin
p40
g2
tp41
a(VWeston
p42
VLOCATION
p43
tp44
a(Vto
p45
g2
tp46
a(Vfind
p47
g2
tp48
a(Vit
p49
g2
tp50
a(Valong
p51
g2
tp52
a(Vwith
p53
g2
tp54
a(Va
p55
g2
tp56
a(Vjaw
p57
g2
tp58
a(Vharp,
p59
g2
tp60
a(VCranberry
p61
g2
tp62
a(VHorseradish
p63
g2
tp64
a(VSauce,
p65
g2
tp66
a(VFartless
p67
g2
tp68
a(VBlack
p69
g2
tp70
a(VBean
p71
g2
tp72
a(VSalsa,
p73
g2
tp74
a(VApple
p75
g2
tp76
a(VCider
p77
g2
tp78
a(VJelly,
p79
g2
tp80
a(VNewton's
p81
g2
tp82
a(VCradle
p83
g2
tp84
a(VArt
p85
g2
tp86
a(Vin
p87
g2
tp88
a(VMotion
p89
g2
tp90
a(Vand
p91
g2
tp92
a(Vthe
p93
g2
tp94
a(Vstaple
p95
g2
tp96
a(VVermont
p97
g2
tp98
a(VMaple
p99
g2
tp100
a(VSyrup.Back
p101
g2
tp102
a(Vto
p103
g2
tp104
a(Vthe
p105
g2
tp106
a(VAss
p107
g2
tp108
a(VKickin
p109
g2
tp110
a(VPeanuts.
p111
g2
tp112
a(VThey
p113
g2
tp114
a(Vare
p115
g2
tp116
a(Vhot.
p117
g2
tp118
a(VThey
p119
g2
tp120
a(Vwill
p121
g2
tp122
a(Vactivate
p123
g2
tp124
a(Vthe
p125
g2
tp126
a(Vperspiration
p127
g2
tp128
a(Vglands
p129
g2
tp130
a(Vbehind
p131
g2
tp132
a(Vyour
p133
g2
tp134
a(Vears
p135
g2
tp136
a(Vand
p137
g2
tp138
a(Vunder
p139
g2
tp140
a(Vyour
p141
g2
tp142
a(Varms.
p143
g2
tp144
a(VIt
p145
g2
tp146
a(Vrequires
p147
g2
tp148
a(g55
g2
tp149
a(Vbeverage
p150
g2
tp151
a(Vas
p152
g2
tp153
a(Vadvertised,
p154
g2
tp155
a(g55
g2
tp156
a(Vglass
p157
g2
tp158
a(Vof
p159
g2
tp160
a(Vvery
p161
g2
tp162
a(Vcold
p163
g2
tp164
a(Vmilk,
p165
g2
tp166
a(Vand
p167
g2
tp168
a(g55
g2
tp169
a(Vbox
p170
g2
tp171
a(Vof
p172
g2
tp173
a(VKleenex
p174
g2
tp175
a(Vsince
p176
g2
tp177
a(Vit
p178
g2
tp179
a(Vwill
p180
g2
tp181
a(Vmake
p182
g2
tp183
a(Vyour
p184
g2
tp185
a(Vnose
p186
g2
tp187
a(Vrun.
p188
g2
tp189
a(VThey
p190
g2
tp191
a(Vlook
p192
g2
tp193
a(Vlike
p194
g2
tp195
a(Vordinary
p196
g2
tp197
a(Vpeanuts
p198
g2
tp199
a(Vwhich
p200
g2
tp201
a(Vis
p202
g2
tp203
a(Valready
p204
g2
tp205
a(Vgiving
p206
g2
tp207
a(Vme
p208
g2
tp209
a(Videas
p210
g2
tp211
a(Vfor
p212
g2
tp213
a(Vwork.
p214
g2
tp215
a(g16
g2
tp216
a(Vsuspect
p217
g2
tp218
a(Vthat
p219
g2
tp220
a(Vsome
p221
g2
tp222
a(Vpeople
p223
g2
tp224
a(Vhave
p225
g2
tp226
a(Vbeen
p227
g2
tp228
a(Vhitting
p229
g2
tp230
a(Vmy
p231
g2
tp232
a(Vgoodies
p233
g2
tp234
a(Vin
p235
g2
tp236
a(Vmy
p237
g2
tp238
a(Vabsence,
p239
g2
tp240
a(Vespecially
p241
g2
tp242
a(Vmy
p243
g2
tp244
a(Vcolleague
p245
g2
tp246
a(VGreg.
p247
g2
tp248
a(VI'm
p249
g2
tp250
a(Vgoing
p251
g2
tp252
a(Vto
p253
g2
tp254
a(Vtake
p255
g2
tp256
a(Vthis
p257
g2
tp258
a(Vto
p259
g2
tp260
a(Vwork
p261
g2
tp262
a(Vat
p263
g2
tp264
a(Vearliest
p265
g2
tp266
a(Vopportunity
p267
g2
tp268
a(Vand
p269
g2
tp270
a(Vempty
p271
g2
tp272
a(Vthe
p273
g2
tp274
a(Vcontents
p275
g2
tp276
a(Vof
p277
g2
tp278
a(Vthis
p279
g2
tp280
a(Vcan
p281
g2
tp282
a(Vinto
p283
g2
tp284
a(Van
p285
g2
tp286
a(Vordinary
p287
g2
tp288
a(VPlanters
p289
g2
tp290
a(VPeanuts
p291
g2
tp292
a(Vcan,
p293
g2
tp294
a(Vand
p295
g2
tp296
a(Vthen
p297
g2
tp298
a(Vsee
p299
g2
tp300
a(Vwhose
p301
g2
tp302
a(Vcrying
p303
g2
tp304
a(Vor
p305
g2
tp306
a(Vwhose
p307
g2
tp308
a(Vnose
p309
g2
tp310
a(Vis
p311
g2
tp312
a(Vrunning
p313
g2
tp314
a(Vwhen
p315
g2
tp316
a(g16
g2
tp317
a(Vreturn.The
p318
g2
tp319
a(Vcan
p320
g2
tp321
a(Vshould
p322
g2
tp323
a(Vbe
p324
g2
tp325
a(Vshaken
p326
g2
tp327
a(Vto
p328
g2
tp329
a(Vensure
p330
g2
tp331
a(Vthe
p332
g2
tp333
a(Vspices
p334
g2
tp335
a(Vare
p336
g2
tp337
a(Vevenly
p338
g2
tp339
a(Vdistributed.
p340
g2
tp341
a(VIt
p342
g2
tp343
a(Vis
p344
g2
tp345
a(Vimportant
p346
g2
tp347
a(Vto
p348
g2
tp349
a(Vwash
p350
g2
tp351
a(Vyour
p352
g2
tp353
a(Vhands
p354
g2
tp355
a(Vafter
p356
g2
tp357
a(Vconsumption
p358
g2
tp359
a(Vand
p360
g2
tp361
a(Vnot
p362
g2
tp363
a(Vtouch
p364
g2
tp365
a(Vthe
p366
g2
tp367
a(Veyes.You'll
p368
g2
tp369
a(Vgo
p370
g2
tp371
a(Vnuts
p372
g2
tp373
a(Vover
p374
g2
tp375
a(Vthese
p376
g2
tp377
a(VAss-Kickin'
p378
g2
tp379
a(VPeanuts.P.S.
p380
g2
tp381
a(VI'm
p382
g2
tp383
a(Vnot
p384
g2
tp385
a(Vsharing
p386
g2
tp387
a(Vthe
p388
g2
tp389
a(Vpeanuts,
p390
g2
tp391
a(Vnot
p392
g2
tp393
a(Vdeliberately,
p394
g2
tp395
a(Vand
p396
g2
tp397
a(VI'll
p398
g2
tp399
a(Vprobably
p400
g2
tp401
a(Vgive
p402
g2
tp403
a(VGreg
p404
VPERSON
p405
tp406
a(Vthe
p407
g2
tp408
a(Vjaw
p409
g2
tp410
a(Vharp
p411
g2
tp412
a(Vfor
p413
g2
tp414
a(VChristmas.
p415
g2
tp416
a(VHe'll
p417
g2
tp418
a(Vbe
p419
g2
tp420
a(Vso
p421
g2
tp422
a(Vinsulted.
p423
g2
tp424
a.