(lp0
(VI
p1
VO
p2
tp3
a(Vdon't
p4
g2
tp5
a(Vknow
p6
g2
tp7
a(Vif
p8
g2
tp9
a(Vit's
p10
g2
tp11
a(Vthe
p12
g2
tp13
a(Vcactus
p14
g2
tp15
a(Vor
p16
g2
tp17
a(Vthe
p18
g2
tp19
a(Vtequila
p20
g2
tp21
a(Vor
p22
g2
tp23
a(Vjust
p24
g2
tp25
a(Vthe
p26
g2
tp27
a(Vunique
p28
g2
tp29
a(Vcombination
p30
g2
tp31
a(Vof
p32
g2
tp33
a(Vingredients,
p34
g2
tp35
a(Vbut
p36
g2
tp37
a(Vthe
p38
g2
tp39
a(Vflavour
p40
g2
tp41
a(Vof
p42
g2
tp43
a(Vthis
p44
g2
tp45
a(Vhot
p46
g2
tp47
a(Vsauce
p48
g2
tp49
a(Vmakes
p50
g2
tp51
a(Vit
p52
g2
tp53
a(Vone
p54
g2
tp55
a(Vof
p56
g2
tp57
a(Va
p58
g2
tp59
a(Vkind!
p60
g2
tp61
a(VWe
p62
g2
tp63
a(Vpicked
p64
g2
tp65
a(Vup
p66
g2
tp67
a(g58
g2
tp68
a(Vbottle
p69
g2
tp70
a(Vonce
p71
g2
tp72
a(Von
p73
g2
tp74
a(g58
g2
tp75
a(Vtrip
p76
g2
tp77
a(Vwe
p78
g2
tp79
a(Vwere
p80
g2
tp81
a(Von
p82
g2
tp83
a(Vand
p84
g2
tp85
a(Vbrought
p86
g2
tp87
a(Vit
p88
g2
tp89
a(Vback
p90
g2
tp91
a(Vhome
p92
g2
tp93
a(Vwith
p94
g2
tp95
a(Vus
p96
g2
tp97
a(Vand
p98
g2
tp99
a(Vwere
p100
g2
tp101
a(Vtotally
p102
g2
tp103
a(Vblown
p104
g2
tp105
a(Vaway!
p106
g2
tp107
a(VWhen
p108
g2
tp109
a(Vwe
p110
g2
tp111
a(Vrealized
p112
g2
tp113
a(Vthat
p114
g2
tp115
a(Vwe
p116
g2
tp117
a(Vsimply
p118
g2
tp119
a(Vcouldn't
p120
g2
tp121
a(Vfind
p122
g2
tp123
a(Vit
p124
g2
tp125
a(Vanywhere
p126
g2
tp127
a(Vin
p128
g2
tp129
a(Vour
p130
g2
tp131
a(Vcity
p132
g2
tp133
a(Vwe
p134
g2
tp135
a(Vwere
p136
g2
tp137
a(Vbummed.Now,
p138
g2
tp139
a(Vbecause
p140
g2
tp141
a(Vof
p142
g2
tp143
a(Vthe
p144
g2
tp145
a(Vmagic
p146
g2
tp147
a(Vof
p148
g2
tp149
a(Vthe
p150
g2
tp151
a(Vinternet,
p152
g2
tp153
a(Vwe
p154
g2
tp155
a(Vhave
p156
g2
tp157
a(g58
g2
tp158
a(Vcase
p159
g2
tp160
a(Vof
p161
g2
tp162
a(Vthe
p163
g2
tp164
a(Vsauce
p165
g2
tp166
a(Vand
p167
g2
tp168
a(Vare
p169
g2
tp170
a(Vecstatic
p171
g2
tp172
a(Vbecause
p173
g2
tp174
a(Vof
p175
g2
tp176
a(Vit.If
p177
g2
tp178
a(Vyou
p179
g2
tp180
a(Vlove
p181
g2
tp182
a(Vhot
p183
g2
tp184
a(Vsauce..I
p185
g2
tp186
a(Vmean
p187
g2
tp188
a(Vreally
p189
g2
tp190
a(Vlove
p191
g2
tp192
a(Vhot
p193
g2
tp194
a(Vsauce,
p195
g2
tp196
a(Vbut
p197
g2
tp198
a(Vdon't
p199
g2
tp200
a(Vwant
p201
g2
tp202
a(g58
g2
tp203
a(Vsauce
p204
g2
tp205
a(Vthat
p206
g2
tp207
a(Vtastelessly
p208
g2
tp209
a(Vburns
p210
g2
tp211
a(Vyour
p212
g2
tp213
a(Vthroat,
p214
g2
tp215
a(Vgrab
p216
g2
tp217
a(g58
g2
tp218
a(Vbottle
p219
g2
tp220
a(Vof
p221
g2
tp222
a(VTequila
p223
g2
tp224
a(VPicante
p225
g2
tp226
a(VGourmet
p227
g2
tp228
a(Vde
p229
g2
tp230
a(VInclan.
p231
g2
tp232
a(VJust
p233
g2
tp234
a(Vrealize
p235
g2
tp236
a(Vthat
p237
g2
tp238
a(Vonce
p239
g2
tp240
a(Vyou
p241
g2
tp242
a(Vtaste
p243
g2
tp244
a(Vit,
p245
g2
tp246
a(Vyou
p247
g2
tp248
a(Vwill
p249
g2
tp250
a(Vnever
p251
g2
tp252
a(Vwant
p253
g2
tp254
a(Vto
p255
g2
tp256
a(Vuse
p257
g2
tp258
a(Vany
p259
g2
tp260
a(Vother
p261
g2
tp262
a(Vsauce.Thank
p263
g2
tp264
a(Vyou
p265
g2
tp266
a(Vfor
p267
g2
tp268
a(Vthe
p269
g2
tp270
a(Vpersonal,
p271
g2
tp272
a(Vincredible
p273
g2
tp274
a(Vservice!
p275
g2
tp276
a.