(lp0
(VThis
p1
VO
p2
tp3
a(Vis
p4
g2
tp5
a(Vgreat
p6
g2
tp7
a(Vdog
p8
g2
tp9
a(Vfood,
p10
g2
tp11
a(Vmy
p12
g2
tp13
a(Vdog
p14
g2
tp15
a(Vhas
p16
g2
tp17
a(Vsevers
p18
g2
tp19
a(Vallergies
p20
g2
tp21
a(Vand
p22
g2
tp23
a(Vthis
p24
g2
tp25
a(Vbrand
p26
g2
tp27
a(Vis
p28
g2
tp29
a(Vthe
p30
g2
tp31
a(Vonly
p32
g2
tp33
a(Vone
p34
g2
tp35
a(Vthat
p36
g2
tp37
a(Vwe
p38
g2
tp39
a(Vcan
p40
g2
tp41
a(Vfeed
p42
g2
tp43
a(Vhim.
p44
g2
tp45
a.