(lp0
(VFor
p1
VO
p2
tp3
a(Vthose
p4
g2
tp5
a(Vof
p6
g2
tp7
a(Vus
p8
g2
tp9
a(Vwith
p10
g2
tp11
a(Vceliac
p12
g2
tp13
a(Vdisease
p14
g2
tp15
a(Vthis
p16
g2
tp17
a(Vproduct
p18
g2
tp19
a(Vis
p20
g2
tp21
a(Va
p22
g2
tp23
a(Vlifesaver
p24
g2
tp25
a(Vand
p26
g2
tp27
a(Vwhat
p28
g2
tp29
a(Vcould
p30
g2
tp31
a(Vbe
p32
g2
tp33
a(Vbetter
p34
g2
tp35
a(Vthan
p36
g2
tp37
a(Vgetting
p38
g2
tp39
a(Vit
p40
g2
tp41
a(Vat
p42
g2
tp43
a(Valmost
p44
g2
tp45
a(Vhalf
p46
g2
tp47
a(Vthe
p48
g2
tp49
a(Vprice
p50
g2
tp51
a(Vof
p52
g2
tp53
a(Vthe
p54
g2
tp55
a(Vgrocery
p56
g2
tp57
a(Vor
p58
g2
tp59
a(Vhealth
p60
g2
tp61
a(Vfood
p62
g2
tp63
a(Vstore!
p64
g2
tp65
a(VI
p66
g2
tp67
a(Vlove
p68
g2
tp69
a(VMcCann's
p70
g2
tp71
a(Vinstant
p72
g2
tp73
a(Voatmeal
p74
g2
tp75
a(V-
p76
g2
tp77
a(Vall
p78
g2
tp79
a(Vflavors!!!Thanks,Abby
p80
g2
tp81
a.