(lp0
(VThis
p1
VO
p2
tp3
a(Vis
p4
g2
tp5
a(Va
p6
g2
tp7
a(Vgood
p8
g2
tp9
a(Vinstant
p10
g2
tp11
a(Voatmeal
p12
g2
tp13
a(Vfrom
p14
g2
tp15
a(Vthe
p16
g2
tp17
a(Vbest
p18
g2
tp19
a(Voatmeal
p20
g2
tp21
a(Vbrand.
p22
g2
tp23
a(VIt
p24
g2
tp25
a(Vuses
p26
g2
tp27
a(Vcane
p28
g2
tp29
a(Vsugar
p30
g2
tp31
a(Vinstead
p32
g2
tp33
a(Vof
p34
g2
tp35
a(Vhigh
p36
g2
tp37
a(Vfructouse
p38
g2
tp39
a(Vcorn
p40
g2
tp41
a(Vsyrup,
p42
g2
tp43
a(Vso
p44
g2
tp45
a(Vnot
p46
g2
tp47
a(Vonly
p48
g2
tp49
a(Vdoes
p50
g2
tp51
a(Vit
p52
g2
tp53
a(Vhave
p54
g2
tp55
a(g6
g2
tp56
a(Vbetter
p57
g2
tp58
a(Vsweetness,
p59
g2
tp60
a(Vbut
p61
g2
tp62
a(Vsome
p63
g2
tp64
a(Vdoctors
p65
g2
tp66
a(Vnow
p67
g2
tp68
a(Vsay
p69
g2
tp70
a(Vthat
p71
g2
tp72
a(Vthis
p73
g2
tp74
a(Vform
p75
g2
tp76
a(Vof
p77
g2
tp78
a(Vsugar
p79
g2
tp80
a(Vis
p81
g2
tp82
a(Vbetter
p83
g2
tp84
a(Vfor
p85
g2
tp86
a(Vyou.
p87
g2
tp88
a(VGreat
p89
g2
tp90
a(Von
p91
g2
tp92
a(g6
g2
tp93
a(Vcold
p94
g2
tp95
a(Vmorning
p96
g2
tp97
a(Vwhen
p98
g2
tp99
a(Vyou
p100
g2
tp101
a(Vdon't
p102
g2
tp103
a(Vhave
p104
g2
tp105
a(Vtime
p106
g2
tp107
a(Vto
p108
g2
tp109
a(Vmake
p110
g2
tp111
a(VMcCann's
p112
g2
tp113
a(VSteel
p114
g2
tp115
a(VCut
p116
g2
tp117
a(VOats.
p118
g2
tp119
a(VThe
p120
g2
tp121
a(Vapple
p122
g2
tp123
a(Vcinnamon
p124
g2
tp125
a(Vis
p126
g2
tp127
a(Vthe
p128
g2
tp129
a(Vbest
p130
g2
tp131
a(Vbut
p132
g2
tp133
a(Vthe
p134
g2
tp135
a(Vmaple
p136
g2
tp137
a(Vand
p138
g2
tp139
a(Vbrown
p140
g2
tp141
a(Vsugar
p142
g2
tp143
a(Vor
p144
g2
tp145
a(Vthe
p146
g2
tp147
a(Vregular
p148
g2
tp149
a(Vare
p150
g2
tp151
a(Vgood
p152
g2
tp153
a(Vtoo.
p154
g2
tp155
a(VPlus
p156
g2
tp157
a(Vthey
p158
g2
tp159
a(Vdon't
p160
g2
tp161
a(Vrequire
p162
g2
tp163
a(Vdoctoring
p164
g2
tp165
a(Vto
p166
g2
tp167
a(Vactually
p168
g2
tp169
a(Vtell
p170
g2
tp171
a(Vthe
p172
g2
tp173
a(Vthree
p174
g2
tp175
a(Vflavors
p176
g2
tp177
a(Vapart.
p178
g2
tp179
a.