(lp0
(VThis
p1
VO
p2
tp3
a(Vis
p4
g2
tp5
a(Va
p6
g2
tp7
a(Vvery
p8
g2
tp9
a(Vhealthy
p10
g2
tp11
a(Vdog
p12
g2
tp13
a(Vfood.
p14
g2
tp15
a(VGood
p16
g2
tp17
a(Vfor
p18
g2
tp19
a(Vtheir
p20
g2
tp21
a(Vdigestion.
p22
g2
tp23
a(VAlso
p24
g2
tp25
a(Vgood
p26
g2
tp27
a(Vfor
p28
g2
tp29
a(Vsmall
p30
g2
tp31
a(Vpuppies.
p32
g2
tp33
a(VMy
p34
g2
tp35
a(Vdog
p36
g2
tp37
a(Veats
p38
g2
tp39
a(Vher
p40
g2
tp41
a(Vrequired
p42
g2
tp43
a(Vamount
p44
g2
tp45
a(Vat
p46
g2
tp47
a(Vevery
p48
g2
tp49
a(Vfeeding.
p50
g2
tp51
a.