(lp0
(VMy
p1
VO
p2
tp3
a(Vdog
p4
g2
tp5
a(Vhas
p6
g2
tp7
a(Va
p8
g2
tp9
a(Vton
p10
g2
tp11
a(Vof
p12
g2
tp13
a(Vallergies
p14
g2
tp15
a(Vboth
p16
g2
tp17
a(Venvironmental
p18
g2
tp19
a(Vand
p20
g2
tp21
a(Vfood.
p22
g2
tp23
a(VShe
p24
g2
tp25
a(Vwas
p26
g2
tp27
a(Von
p28
g2
tp29
a(g8
g2
tp30
a(Vprescription
p31
g2
tp32
a(Vdog
p33
g2
tp34
a(Vfood
p35
g2
tp36
a(Vbefore
p37
g2
tp38
a(Vwe
p39
g2
tp40
a(Vhad
p41
g2
tp42
a(Vher
p43
g2
tp44
a(Vtested
p45
g2
tp46
a(Vto
p47
g2
tp48
a(Vsee
p49
g2
tp50
a(Vwhat
p51
g2
tp52
a(Vallergies
p53
g2
tp54
a(Vshe
p55
g2
tp56
a(Vhas.
p57
g2
tp58
a(VAfter
p59
g2
tp60
a(Vwe
p61
g2
tp62
a(Vgot
p63
g2
tp64
a(Vthe
p65
g2
tp66
a(Vtest
p67
g2
tp68
a(Vback,
p69
g2
tp70
a(Vwe
p71
g2
tp72
a(Vlearned
p73
g2
tp74
a(Vshe
p75
g2
tp76
a(Vwas
p77
g2
tp78
a(Vallergic
p79
g2
tp80
a(Vto
p81
g2
tp82
a(Vsomething
p83
g2
tp84
a(Vin
p85
g2
tp86
a(Vthe
p87
g2
tp88
a(Vprescription
p89
g2
tp90
a(Vbrand.
p91
g2
tp92
a(VSo
p93
g2
tp94
a(VI
p95
g2
tp96
a(Vfinally
p97
g2
tp98
a(Vfound
p99
g2
tp100
a(Vthis
p101
g2
tp102
a(Vdog
p103
g2
tp104
a(Vfood
p105
g2
tp106
a(Vand
p107
g2
tp108
a(Vshe
p109
g2
tp110
a(Vhas
p111
g2
tp112
a(Vdone
p113
g2
tp114
a(Vso
p115
g2
tp116
a(Vwell
p117
g2
tp118
a(Von
p119
g2
tp120
a(Vthis!
p121
g2
tp122
a(VShe
p123
g2
tp124
a(Vstill
p125
g2
tp126
a(Vhas
p127
g2
tp128
a(Vher
p129
g2
tp130
a(Venvironmental
p131
g2
tp132
a(Vtriggers,
p133
g2
tp134
a(Vbut
p135
g2
tp136
a(g95
g2
tp137
a(Vam
p138
g2
tp139
a(Vhappy
p140
g2
tp141
a(Vshe
p142
g2
tp143
a(Vcan
p144
g2
tp145
a(Vfinally
p146
g2
tp147
a(Veat
p148
g2
tp149
a(Vsomething
p150
g2
tp151
a(g95
g2
tp152
a(Vknow
p153
g2
tp154
a(Vwon't
p155
g2
tp156
a(Vcause
p157
g2
tp158
a(Vher
p159
g2
tp160
a(Vpain.
p161
g2
tp162
a.