(lp0
(VMcCann's
p1
VO
p2
tp3
a(VInstant
p4
g2
tp5
a(VIrish
p6
g2
tp7
a(VOatmeal,
p8
g2
tp9
a(VVariety
p10
g2
tp11
a(VPack
p12
g2
tp13
a(Vof
p14
g2
tp15
a(VRegular,
p16
g2
tp17
a(VApples
p18
g2
tp19
a(V&
p20
g2
tp21
a(VCinnamon,
p22
g2
tp23
a(Vand
p24
g2
tp25
a(VMaple
p26
g2
tp27
a(g20
g2
tp28
a(VBrown
p29
g2
tp30
a(VSugar,
p31
g2
tp32
a(V10-Count
p33
g2
tp34
a(VBoxes
p35
g2
tp36
a(V(Pack
p37
g2
tp38
a(Vof
p39
g2
tp40
a(V6)I'm
p41
g2
tp42
a(Va
p43
g2
tp44
a(Vfan
p45
g2
tp46
a(Vof
p47
g2
tp48
a(Vthe
p49
g2
tp50
a(VMcCann's
p51
g2
tp52
a(Vsteel-cut
p53
g2
tp54
a(Voats,
p55
g2
tp56
a(Vso
p57
g2
tp58
a(VI
p59
g2
tp60
a(Vthought
p61
g2
tp62
a(VI'd
p63
g2
tp64
a(Vgive
p65
g2
tp66
a(Vthe
p67
g2
tp68
a(Vinstant
p69
g2
tp70
a(Vvariety
p71
g2
tp72
a(g43
g2
tp73
a(Vtry.
p74
g2
tp75
a(g59
g2
tp76
a(Vfound
p77
g2
tp78
a(Vit
p79
g2
tp80
a(Vto
p81
g2
tp82
a(Vbe
p83
g2
tp84
a(g43
g2
tp85
a(Vhardy
p86
g2
tp87
a(Vmeal,
p88
g2
tp89
a(Vnot
p90
g2
tp91
a(Vtoo
p92
g2
tp93
a(Vsweet,
p94
g2
tp95
a(Vand
p96
g2
tp97
a(Vgreat
p98
g2
tp99
a(Vfor
p100
g2
tp101
a(Vfolks
p102
g2
tp103
a(Vlike
p104
g2
tp105
a(Vme
p106
g2
tp107
a(V(post-bariatric
p108
g2
tp109
a(Vsurgery)
p110
g2
tp111
a(Vwho
p112
g2
tp113
a(Vneed
p114
g2
tp115
a(Vfood
p116
g2
tp117
a(Vthat
p118
g2
tp119
a(Vis
p120
g2
tp121
a(Vpalatable,
p122
g2
tp123
a(Veasily
p124
g2
tp125
a(Vdigestible,
p126
g2
tp127
a(Vwith
p128
g2
tp129
a(Vfiber
p130
g2
tp131
a(Vbut
p132
g2
tp133
a(Vwon't
p134
g2
tp135
a(Vmake
p136
g2
tp137
a(Vyou
p138
g2
tp139
a(Vbloat.
p140
g2
tp141
a.