(lp0
(VI
p1
VO
p2
tp3
a(Vhave
p4
g2
tp5
a(Vbought
p6
g2
tp7
a(Vseveral
p8
g2
tp9
a(Vof
p10
g2
tp11
a(Vthe
p12
g2
tp13
a(VVitality
p14
g2
tp15
a(Vcanned
p16
g2
tp17
a(Vdog
p18
g2
tp19
a(Vfood
p20
g2
tp21
a(Vproducts
p22
g2
tp23
a(Vand
p24
g2
tp25
a(Vhave
p26
g2
tp27
a(Vfound
p28
g2
tp29
a(Vthem
p30
g2
tp31
a(Vall
p32
g2
tp33
a(Vto
p34
g2
tp35
a(Vbe
p36
g2
tp37
a(Vof
p38
g2
tp39
a(Vgood
p40
g2
tp41
a(Vquality.
p42
g2
tp43
a(VThe
p44
g2
tp45
a(Vproduct
p46
g2
tp47
a(Vlooks
p48
g2
tp49
a(Vmore
p50
g2
tp51
a(Vlike
p52
g2
tp53
a(Va
p54
g2
tp55
a(Vstew
p56
g2
tp57
a(Vthan
p58
g2
tp59
a(g54
g2
tp60
a(Vprocessed
p61
g2
tp62
a(Vmeat
p63
g2
tp64
a(Vand
p65
g2
tp66
a(Vit
p67
g2
tp68
a(Vsmells
p69
g2
tp70
a(Vbetter.
p71
g2
tp72
a(VMy
p73
g2
tp74
a(VLabrador
p75
VLOCATION
p76
tp77
a(Vis
p78
g2
tp79
a(Vfinicky
p80
g2
tp81
a(Vand
p82
g2
tp83
a(Vshe
p84
g2
tp85
a(Vappreciates
p86
g2
tp87
a(Vthis
p88
g2
tp89
a(Vproduct
p90
g2
tp91
a(Vbetter
p92
g2
tp93
a(Vthan
p94
g2
tp95
a(Vmost.
p96
g2
tp97
a.