(lp0
(VThis
p1
VO
p2
tp3
a(Vbag
p4
g2
tp5
a(Vof
p6
g2
tp7
a(Vcandy
p8
g2
tp9
a(Vonline
p10
g2
tp11
a(Vis
p12
g2
tp13
a(Vpretty
p14
g2
tp15
a(Vexpensive,
p16
g2
tp17
a(Vit
p18
g2
tp19
a(Vshould
p20
g2
tp21
a(Vbe
p22
g2
tp23
a(Vcheaper
p24
g2
tp25
a(Vin
p26
g2
tp27
a(Vorder
p28
g2
tp29
a(Vto
p30
g2
tp31
a(Vcompete
p32
g2
tp33
a(Vwith
p34
g2
tp35
a(Vgrocery
p36
g2
tp37
a(Vstores,
p38
g2
tp39
a(Vother
p40
g2
tp41
a(Vthan
p42
g2
tp43
a(Vthat,
p44
g2
tp45
a(Vits
p46
g2
tp47
a(Va
p48
g2
tp49
a(Vgood
p50
g2
tp51
a(Vcombination
p52
g2
tp53
a(Vof
p54
g2
tp55
a(Vmy
p56
g2
tp57
a(Vfavorite
p58
g2
tp59
a(Vcandy
p60
g2
tp61
a.