(lp0
(VGreat
p1
VO
p2
tp3
a(Vproduct,
p4
g2
tp5
a(Vnice
p6
g2
tp7
a(Vcombination
p8
g2
tp9
a(Vof
p10
g2
tp11
a(Vchocolates
p12
g2
tp13
a(Vand
p14
g2
tp15
a(Vperfect
p16
g2
tp17
a(Vsize!
p18
g2
tp19
a(VThe
p20
g2
tp21
a(Vbags
p22
g2
tp23
a(Vhad
p24
g2
tp25
a(Vplenty,
p26
g2
tp27
a(Vand
p28
g2
tp29
a(Vthey
p30
g2
tp31
a(Vwere
p32
g2
tp33
a(Vshipped
p34
g2
tp35
a(Vpromptly.
p36
g2
tp37
a(VThe
p38
g2
tp39
a(Vkids
p40
g2
tp41
a(Vin
p42
g2
tp43
a(Vthe
p44
g2
tp45
a(Vneighborhood
p46
g2
tp47
a(Vliked
p48
g2
tp49
a(Vour
p50
g2
tp51
a(Vcandies!
p52
g2
tp53
a.