(lp0
(VThis
p1
VO
p2
tp3
a(Vpeppermint
p4
g2
tp5
a(Vstick
p6
g2
tp7
a(Vis
p8
g2
tp9
a(Vdelicious
p10
g2
tp11
a(Vand
p12
g2
tp13
a(Vfun
p14
g2
tp15
a(Vto
p16
g2
tp17
a(Veat.
p18
g2
tp19
a(VMy
p20
g2
tp21
a(Vdad
p22
g2
tp23
a(Vgot
p24
g2
tp25
a(Vme
p26
g2
tp27
a(Vone
p28
g2
tp29
a(Vfor
p30
g2
tp31
a(VChristmas
p32
g2
tp33
a(Vbecause
p34
g2
tp35
a(Vhe
p36
g2
tp37
a(Vremembered
p38
g2
tp39
a(Vme
p40
g2
tp41
a(Vhaving
p42
g2
tp43
a(Va
p44
g2
tp45
a(Vsimilar
p46
g2
tp47
a(Vone
p48
g2
tp49
a(Vwhen
p50
g2
tp51
a(VI
p52
g2
tp53
a(Vwas
p54
g2
tp55
a(g44
g2
tp56
a(Vlittle
p57
g2
tp58
a(Vgirl.
p59
g2
tp60
a(VI'm
p61
g2
tp62
a(V30
p63
g2
tp64
a(Vnow
p65
g2
tp66
a(Vand
p67
g2
tp68
a(g52
g2
tp69
a(Vlove
p70
g2
tp71
a(Vit!
p72
g2
tp73
a.