(lp0
(Vwe're
p1
VO
p2
tp3
a(Vused
p4
g2
tp5
a(Vto
p6
g2
tp7
a(Vspicy
p8
g2
tp9
a(Vfoods
p10
g2
tp11
a(Vdown
p12
g2
tp13
a(Vhere
p14
g2
tp15
a(Vin
p16
g2
tp17
a(Vsouth
p18
g2
tp19
a(Vtexas
p20
g2
tp21
a(Vand
p22
g2
tp23
a(Vthese
p24
g2
tp25
a(Vare
p26
g2
tp27
a(Vnot
p28
g2
tp29
a(Vat
p30
g2
tp31
a(Vall
p32
g2
tp33
a(Vspicy.
p34
g2
tp35
a(Vdoubt
p36
g2
tp37
a(Vvery
p38
g2
tp39
a(Vmuch
p40
g2
tp41
a(Vhabanero
p42
g2
tp43
a(Vis
p44
g2
tp45
a(Vused
p46
g2
tp47
a(Vat
p48
g2
tp49
a(Vall.
p50
g2
tp51
a(Vcould
p52
g2
tp53
a(Vtake
p54
g2
tp55
a(Vit
p56
g2
tp57
a(Vup
p58
g2
tp59
a(Va
p60
g2
tp61
a(Vnotch
p62
g2
tp63
a(Vor
p64
g2
tp65
a(Vtwo.
p66
g2
tp67
a.