(lp0
(VTwizzlers,
p1
VO
p2
tp3
a(VStrawberry
p4
VPERSON
p5
tp6
a(Vmy
p7
g2
tp8
a(Vchildhood
p9
g2
tp10
a(Vfavorite
p11
g2
tp12
a(Vcandy,
p13
g2
tp14
a(Vmade
p15
g2
tp16
a(Vin
p17
g2
tp18
a(VLancaster
p19
VLOCATION
p20
tp21
a(VPennsylvania
p22
VLOCATION
p23
tp24
a(Vby
p25
g2
tp26
a(VY
p27
VORGANIZATION
p28
tp29
a(V&
p30
VORGANIZATION
p31
tp32
a(VS
p33
VORGANIZATION
p34
tp35
a(VCandies,
p36
VORGANIZATION
p37
tp38
a(VInc.
p39
VORGANIZATION
p40
tp41
a(Vone
p42
g2
tp43
a(Vof
p44
g2
tp45
a(Vthe
p46
g2
tp47
a(Voldest
p48
g2
tp49
a(Vconfectionery
p50
g2
tp51
a(VFirms
p52
g2
tp53
a(Vin
p54
g2
tp55
a(Vthe
p56
g2
tp57
a(VUnited
p58
VLOCATION
p59
tp60
a(VStates,
p61
VLOCATION
p62
tp63
a(Vnow
p64
g2
tp65
a(Va
p66
g2
tp67
a(VSubsidiary
p68
g2
tp69
a(Vof
p70
g2
tp71
a(Vthe
p72
g2
tp73
a(VHershey
p74
VORGANIZATION
p75
tp76
a(VCompany,
p77
g2
tp78
a(Vthe
p79
g2
tp80
a(VCompany
p81
g2
tp82
a(Vwas
p83
g2
tp84
a(Vestablished
p85
g2
tp86
a(Vin
p87
g2
tp88
a(V1845
p89
g2
tp90
a(Vas
p91
g2
tp92
a(VYoung
p93
g2
tp94
a(Vand
p95
g2
tp96
a(VSmylie,
p97
g2
tp98
a(Vthey
p99
g2
tp100
a(Valso
p101
g2
tp102
a(Vmake
p103
g2
tp104
a(VApple
p105
g2
tp106
a(VLicorice
p107
g2
tp108
a(VTwists,
p109
g2
tp110
a(VGreen
p111
g2
tp112
a(VColor
p113
g2
tp114
a(Vand
p115
g2
tp116
a(VBlue
p117
g2
tp118
a(VRaspberry
p119
g2
tp120
a(VLicorice
p121
g2
tp122
a(VTwists,
p123
g2
tp124
a(VI
p125
g2
tp126
a(Vlike
p127
g2
tp128
a(Vthem
p129
g2
tp130
a(VallI
p131
g2
tp132
a(Vkeep
p133
g2
tp134
a(Vit
p135
g2
tp136
a(Vin
p137
g2
tp138
a(g66
g2
tp139
a(Vdry
p140
g2
tp141
a(Vcool
p142
g2
tp143
a(Vplace
p144
g2
tp145
a(Vbecause
p146
g2
tp147
a(Vis
p148
g2
tp149
a(Vnot
p150
g2
tp151
a(Vrecommended
p152
g2
tp153
a(Vit
p154
g2
tp155
a(Vto
p156
g2
tp157
a(Vput
p158
g2
tp159
a(Vit
p160
g2
tp161
a(Vin
p162
g2
tp163
a(Vthe
p164
g2
tp165
a(Vfridge.
p166
g2
tp167
a(VAccording
p168
g2
tp169
a(Vto
p170
g2
tp171
a(Vthe
p172
g2
tp173
a(VGuinness
p174
g2
tp175
a(VBook
p176
g2
tp177
a(Vof
p178
g2
tp179
a(VRecords,
p180
g2
tp181
a(Vthe
p182
g2
tp183
a(Vlongest
p184
g2
tp185
a(VLicorice
p186
g2
tp187
a(VTwist
p188
g2
tp189
a(Vever
p190
g2
tp191
a(Vmade
p192
g2
tp193
a(Vmeasured
p194
g2
tp195
a(V1.200
p196
g2
tp197
a(VFeet
p198
g2
tp199
a(V(370
p200
g2
tp201
a(VM)
p202
g2
tp203
a(Vand
p204
g2
tp205
a(Vweighted
p206
g2
tp207
a(V100
p208
g2
tp209
a(VPounds
p210
g2
tp211
a(V(45
p212
g2
tp213
a(VKg)
p214
g2
tp215
a(Vand
p216
g2
tp217
a(Vwas
p218
g2
tp219
a(Vmade
p220
g2
tp221
a(Vby
p222
g2
tp223
a(g27
VORGANIZATION
p224
tp225
a(g30
VORGANIZATION
p226
tp227
a(g33
VORGANIZATION
p228
tp229
a(VCandies,
p230
VORGANIZATION
p231
tp232
a(VInc.
p233
VORGANIZATION
p234
tp235
a(VThis
p236
g2
tp237
a(VRecord-Breaking
p238
g2
tp239
a(VTwist
p240
g2
tp241
a(Vbecame
p242
g2
tp243
a(g66
g2
tp244
a(VGuinness
p245
g2
tp246
a(VWorld
p247
g2
tp248
a(VRecord
p249
g2
tp250
a(Von
p251
g2
tp252
a(VJuly
p253
g2
tp254
a(V19,
p255
g2
tp256
a(V1998.
p257
g2
tp258
a(VThis
p259
g2
tp260
a(VProduct
p261
g2
tp262
a(Vis
p263
g2
tp264
a(VKosher!
p265
g2
tp266
a(VThank
p267
g2
tp268
a(VYou
p269
g2
tp270
a.