(lp0
(VIf
p1
VO
p2
tp3
a(Vyou
p4
g2
tp5
a(Vare
p6
g2
tp7
a(Vlooking
p8
g2
tp9
a(Vfor
p10
g2
tp11
a(Vthe
p12
g2
tp13
a(Vsecret
p14
g2
tp15
a(Vingredient
p16
g2
tp17
a(Vin
p18
g2
tp19
a(VRobitussin
p20
g2
tp21
a(VI
p22
g2
tp23
a(Vbelieve
p24
g2
tp25
a(g22
g2
tp26
a(Vhave
p27
g2
tp28
a(Vfound
p29
g2
tp30
a(Vit.
p31
g2
tp32
a(g22
g2
tp33
a(Vgot
p34
g2
tp35
a(Vthis
p36
g2
tp37
a(Vin
p38
g2
tp39
a(Vaddition
p40
g2
tp41
a(Vto
p42
g2
tp43
a(Vthe
p44
g2
tp45
a(VRoot
p46
g2
tp47
a(VBeer
p48
g2
tp49
a(VExtract
p50
g2
tp51
a(g22
g2
tp52
a(Vordered
p53
g2
tp54
a(V(which
p55
g2
tp56
a(Vwas
p57
g2
tp58
a(Vgood)
p59
g2
tp60
a(Vand
p61
g2
tp62
a(Vmade
p63
g2
tp64
a(Vsome
p65
g2
tp66
a(Vcherry
p67
g2
tp68
a(Vsoda.
p69
g2
tp70
a(VThe
p71
g2
tp72
a(Vflavor
p73
g2
tp74
a(Vis
p75
g2
tp76
a(Vvery
p77
g2
tp78
a(Vmedicinal.
p79
g2
tp80
a.