(lp0
(VI
p1
VO
p2
tp3
a(Vhave
p4
g2
tp5
a(VMcCann's
p6
g2
tp7
a(VOatmeal
p8
g2
tp9
a(Vevery
p10
g2
tp11
a(Vmorning
p12
g2
tp13
a(Vand
p14
g2
tp15
a(Vby
p16
g2
tp17
a(Vordering
p18
g2
tp19
a(Vit
p20
g2
tp21
a(Vfrom
p22
g2
tp23
a(VAmazon
p24
VLOCATION
p25
tp26
a(g1
g2
tp27
a(Vam
p28
g2
tp29
a(Vable
p30
g2
tp31
a(Vto
p32
g2
tp33
a(Vsave
p34
g2
tp35
a(Valmost
p36
g2
tp37
a(V$3.00
p38
g2
tp39
a(Vper
p40
g2
tp41
a(Vbox.It
p42
g2
tp43
a(Vis
p44
g2
tp45
a(Va
p46
g2
tp47
a(Vgreat
p48
g2
tp49
a(Vproduct.
p50
g2
tp51
a(VTastes
p52
g2
tp53
a(Vgreat
p54
g2
tp55
a(Vand
p56
g2
tp57
a(Vvery
p58
g2
tp59
a(Vhealthy
p60
g2
tp61
a.