(lp0
(VProduct
p1
VO
p2
tp3
a(Vreceived
p4
g2
tp5
a(Vis
p6
g2
tp7
a(Vas
p8
g2
tp9
a(Vadvertised.Twizzlers,
p10
g2
tp11
a(VStrawberry,
p12
g2
tp13
a(V16-Ounce
p14
g2
tp15
a(VBags
p16
g2
tp17
a(V(Pack
p18
g2
tp19
a(Vof
p20
g2
tp21
a(V6)
p22
g2
tp23
a.