(lp0
(VMcCann's
p1
VO
p2
tp3
a(VInstant
p4
g2
tp5
a(VOatmeal
p6
g2
tp7
a(Vis
p8
g2
tp9
a(Vgreat
p10
g2
tp11
a(Vif
p12
g2
tp13
a(Vyou
p14
g2
tp15
a(Vmust
p16
g2
tp17
a(Vhave
p18
g2
tp19
a(Vyour
p20
g2
tp21
a(Voatmeal
p22
g2
tp23
a(Vbut
p24
g2
tp25
a(Vcan
p26
g2
tp27
a(Vonly
p28
g2
tp29
a(Vscrape
p30
g2
tp31
a(Vtogether
p32
g2
tp33
a(Vtwo
p34
g2
tp35
a(Vor
p36
g2
tp37
a(Vthree
p38
g2
tp39
a(Vminutes
p40
g2
tp41
a(Vto
p42
g2
tp43
a(Vprepare
p44
g2
tp45
a(Vit.
p46
g2
tp47
a(VThere
p48
g2
tp49
a(Vis
p50
g2
tp51
a(Vno
p52
g2
tp53
a(Vescaping
p54
g2
tp55
a(Vthe
p56
g2
tp57
a(Vfact,
p58
g2
tp59
a(Vhowever,
p60
g2
tp61
a(Vthat
p62
g2
tp63
a(Veven
p64
g2
tp65
a(Vthe
p66
g2
tp67
a(Vbest
p68
g2
tp69
a(Vinstant
p70
g2
tp71
a(Voatmeal
p72
g2
tp73
a(Vis
p74
g2
tp75
a(Vnowhere
p76
g2
tp77
a(Vnear
p78
g2
tp79
a(Vas
p80
g2
tp81
a(Vgood
p82
g2
tp83
a(Vas
p84
g2
tp85
a(Veven
p86
g2
tp87
a(Va
p88
g2
tp89
a(Vstore
p90
g2
tp91
a(Vbrand
p92
g2
tp93
a(Vof
p94
g2
tp95
a(Voatmeal
p96
g2
tp97
a(Vrequiring
p98
g2
tp99
a(Vstovetop
p100
g2
tp101
a(Vpreparation.
p102
g2
tp103
a(VStill,
p104
g2
tp105
a(Vthe
p106
g2
tp107
a(VMcCann's
p108
g2
tp109
a(Vis
p110
g2
tp111
a(Vas
p112
g2
tp113
a(Vgood
p114
g2
tp115
a(Vas
p116
g2
tp117
a(Vit
p118
g2
tp119
a(Vgets
p120
g2
tp121
a(Vfor
p122
g2
tp123
a(Vinstant
p124
g2
tp125
a(Voatmeal.
p126
g2
tp127
a(VIt's
p128
g2
tp129
a(Veven
p130
g2
tp131
a(Vbetter
p132
g2
tp133
a(Vthan
p134
g2
tp135
a(Vthe
p136
g2
tp137
a(Vorganic,
p138
g2
tp139
a(Vall-natural
p140
g2
tp141
a(Vbrands
p142
g2
tp143
a(VI
p144
g2
tp145
a(Vhave
p146
g2
tp147
a(Vtried.
p148
g2
tp149
a(VAll
p150
g2
tp151
a(Vthe
p152
g2
tp153
a(Vvarieties
p154
g2
tp155
a(Vin
p156
g2
tp157
a(Vthe
p158
g2
tp159
a(VMcCann's
p160
g2
tp161
a(Vvariety
p162
g2
tp163
a(Vpack
p164
g2
tp165
a(Vtaste
p166
g2
tp167
a(Vgood.
p168
g2
tp169
a(VIt
p170
g2
tp171
a(Vcan
p172
g2
tp173
a(Vbe
p174
g2
tp175
a(Vprepared
p176
g2
tp177
a(Vin
p178
g2
tp179
a(Vthe
p180
g2
tp181
a(Vmicrowave
p182
g2
tp183
a(Vor
p184
g2
tp185
a(Vby
p186
g2
tp187
a(Vadding
p188
g2
tp189
a(Vboiling
p190
g2
tp191
a(Vwater
p192
g2
tp193
a(Vso
p194
g2
tp195
a(Vit
p196
g2
tp197
a(Vis
p198
g2
tp199
a(Vconvenient
p200
g2
tp201
a(Vin
p202
g2
tp203
a(Vthe
p204
g2
tp205
a(Vextreme
p206
g2
tp207
a(Vwhen
p208
g2
tp209
a(Vtime
p210
g2
tp211
a(Vis
p212
g2
tp213
a(Van
p214
g2
tp215
a(Vissue.McCann's
p216
g2
tp217
a(Vuse
p218
g2
tp219
a(Vof
p220
g2
tp221
a(Vactual
p222
g2
tp223
a(Vcane
p224
g2
tp225
a(Vsugar
p226
g2
tp227
a(Vinstead
p228
g2
tp229
a(Vof
p230
g2
tp231
a(Vhigh
p232
g2
tp233
a(Vfructose
p234
g2
tp235
a(Vcorn
p236
g2
tp237
a(Vsyrup
p238
g2
tp239
a(Vhelped
p240
g2
tp241
a(Vme
p242
g2
tp243
a(Vdecide
p244
g2
tp245
a(Vto
p246
g2
tp247
a(Vbuy
p248
g2
tp249
a(Vthis
p250
g2
tp251
a(Vproduct.
p252
g2
tp253
a(VReal
p254
g2
tp255
a(Vsugar
p256
g2
tp257
a(Vtastes
p258
g2
tp259
a(Vbetter
p260
g2
tp261
a(Vand
p262
g2
tp263
a(Vis
p264
g2
tp265
a(Vnot
p266
g2
tp267
a(Vas
p268
g2
tp269
a(Vharmful
p270
g2
tp271
a(Vas
p272
g2
tp273
a(Vthe
p274
g2
tp275
a(Vother
p276
g2
tp277
a(Vstuff.
p278
g2
tp279
a(VOne
p280
g2
tp281
a(Vthing
p282
g2
tp283
a(g144
g2
tp284
a(Vdo
p285
g2
tp286
a(Vnot
p287
g2
tp288
a(Vlike,
p289
g2
tp290
a(Vthough,
p291
g2
tp292
a(Vis
p293
g2
tp294
a(VMcCann's
p295
g2
tp296
a(Vuse
p297
g2
tp298
a(Vof
p299
g2
tp300
a(Vthickeners.
p301
g2
tp302
a(VOats
p303
g2
tp304
a(Vplus
p305
g2
tp306
a(Vwater
p307
g2
tp308
a(Vplus
p309
g2
tp310
a(Vheat
p311
g2
tp312
a(Vshould
p313
g2
tp314
a(Vmake
p315
g2
tp316
a(g88
g2
tp317
a(Vcreamy,
p318
g2
tp319
a(Vtasty
p320
g2
tp321
a(Voatmeal
p322
g2
tp323
a(Vwithout
p324
g2
tp325
a(Vthe
p326
g2
tp327
a(Vneed
p328
g2
tp329
a(Vfor
p330
g2
tp331
a(Vguar
p332
g2
tp333
a(Vgum.
p334
g2
tp335
a(VBut
p336
g2
tp337
a(Vthis
p338
g2
tp339
a(Vis
p340
g2
tp341
a(g88
g2
tp342
a(Vconvenience
p343
g2
tp344
a(Vproduct.
p345
g2
tp346
a(VMaybe
p347
g2
tp348
a(Vthe
p349
g2
tp350
a(Vguar
p351
g2
tp352
a(Vgum
p353
g2
tp354
a(Vis
p355
g2
tp356
a(Vwhy,
p357
g2
tp358
a(Vafter
p359
g2
tp360
a(Vsitting
p361
g2
tp362
a(Vin
p363
g2
tp364
a(Vthe
p365
g2
tp366
a(Vbowl
p367
g2
tp368
a(g88
g2
tp369
a(Vwhile,
p370
g2
tp371
a(Vthe
p372
g2
tp373
a(Vinstant
p374
g2
tp375
a(VMcCann's
p376
g2
tp377
a(Vbecomes
p378
g2
tp379
a(Vtoo
p380
g2
tp381
a(Vthick
p382
g2
tp383
a(Vand
p384
g2
tp385
a(Vgluey.
p386
g2
tp387
a.