(lp0
(VWe
p1
VO
p2
tp3
a(Vroast
p4
g2
tp5
a(Vthese
p6
g2
tp7
a(Vin
p8
g2
tp9
a(Va
p10
g2
tp11
a(Vlarge
p12
g2
tp13
a(Vcast
p14
g2
tp15
a(Viron
p16
g2
tp17
a(Vpan
p18
g2
tp19
a(Von
p20
g2
tp21
a(Vthe
p22
g2
tp23
a(Vgrill
p24
g2
tp25
a(V(about
p26
g2
tp27
a(V13
p28
g2
tp29
a(Vof
p30
g2
tp31
a(Vthe
p32
g2
tp33
a(Vbag
p34
g2
tp35
a(Vat
p36
g2
tp37
a(g10
g2
tp38
a(Vtime).
p39
g2
tp40
a(VThe
p41
g2
tp42
a(Vsmell
p43
g2
tp44
a(Vis
p45
g2
tp46
a(Vwonderful
p47
g2
tp48
a(Vand
p49
g2
tp50
a(Vthe
p51
g2
tp52
a(Vroasted
p53
g2
tp54
a(Vbeans
p55
g2
tp56
a(Vtaste
p57
g2
tp58
a(Vdelicious
p59
g2
tp60
a(Vtoo.
p61
g2
tp62
a(VMore
p63
g2
tp64
a(Vimportantly,
p65
g2
tp66
a(Vthe
p67
g2
tp68
a(Vcoffee
p69
g2
tp70
a(Vis
p71
g2
tp72
a(Vsmooth;
p73
g2
tp74
a(Vno
p75
g2
tp76
a(Vbitter
p77
g2
tp78
a(Vaftertaste.
p79
g2
tp80
a(VOn
p81
g2
tp82
a(Vnumerous
p83
g2
tp84
a(Voccasions,
p85
g2
tp86
a(Vwe've
p87
g2
tp88
a(Vhad
p89
g2
tp90
a(Vto
p91
g2
tp92
a(Vsend
p93
g2
tp94
a(Vthe
p95
g2
tp96
a(Vroasted
p97
g2
tp98
a(Vbeans
p99
g2
tp100
a(Vhome
p101
g2
tp102
a(Vwith
p103
g2
tp104
a(Vfriends
p105
g2
tp106
a(Vbecause
p107
g2
tp108
a(Vthey
p109
g2
tp110
a(Vlike
p111
g2
tp112
a(Vit
p113
g2
tp114
a(Vso
p115
g2
tp116
a(Vmuch.
p117
g2
tp118
a.