(lp0
(VThis
p1
VO
p2
tp3
a(Vis
p4
g2
tp5
a(Va
p6
g2
tp7
a(Vconfection
p8
g2
tp9
a(Vthat
p10
g2
tp11
a(Vhas
p12
g2
tp13
a(Vbeen
p14
g2
tp15
a(Varound
p16
g2
tp17
a(g6
g2
tp18
a(Vfew
p19
g2
tp20
a(Vcenturies.
p21
g2
tp22
a(VIt
p23
g2
tp24
a(Vis
p25
g2
tp26
a(g6
g2
tp27
a(Vlight,
p28
g2
tp29
a(Vpillowy
p30
g2
tp31
a(Vcitrus
p32
g2
tp33
a(Vgelatin
p34
g2
tp35
a(Vwith
p36
g2
tp37
a(Vnuts
p38
g2
tp39
a(V-
p40
g2
tp41
a(Vin
p42
g2
tp43
a(Vthis
p44
g2
tp45
a(Vcase
p46
g2
tp47
a(VFilberts.
p48
g2
tp49
a(VAnd
p50
g2
tp51
a(Vit
p52
g2
tp53
a(Vis
p54
g2
tp55
a(Vcut
p56
g2
tp57
a(Vinto
p58
g2
tp59
a(Vtiny
p60
g2
tp61
a(Vsquares
p62
g2
tp63
a(Vand
p64
g2
tp65
a(Vthen
p66
g2
tp67
a(Vliberally
p68
g2
tp69
a(Vcoated
p70
g2
tp71
a(Vwith
p72
g2
tp73
a(Vpowdered
p74
g2
tp75
a(Vsugar.
p76
g2
tp77
a(VAnd
p78
g2
tp79
a(Vit
p80
g2
tp81
a(Vis
p82
g2
tp83
a(g6
g2
tp84
a(Vtiny
p85
g2
tp86
a(Vmouthful
p87
g2
tp88
a(Vof
p89
g2
tp90
a(Vheaven.
p91
g2
tp92
a(VNot
p93
g2
tp94
a(Vtoo
p95
g2
tp96
a(Vchewy,
p97
g2
tp98
a(Vand
p99
g2
tp100
a(Vvery
p101
g2
tp102
a(Vflavorful.
p103
g2
tp104
a(VI
p105
g2
tp106
a(Vhighly
p107
g2
tp108
a(Vrecommend
p109
g2
tp110
a(Vthis
p111
g2
tp112
a(Vyummy
p113
g2
tp114
a(Vtreat.
p115
g2
tp116
a(VIf
p117
g2
tp118
a(Vyou
p119
g2
tp120
a(Vare
p121
g2
tp122
a(Vfamiliar
p123
g2
tp124
a(Vwith
p125
g2
tp126
a(Vthe
p127
g2
tp128
a(Vstory
p129
g2
tp130
a(Vof
p131
g2
tp132
a(VC.S.
p133
g2
tp134
a(VLewis'
p135
g2
tp136
a(V"The
p137
g2
tp138
a(VLion,
p139
g2
tp140
a(VThe
p141
g2
tp142
a(VWitch,
p143
g2
tp144
a(Vand
p145
g2
tp146
a(VThe
p147
g2
tp148
a(VWardrobe"
p149
g2
tp150
a(g40
g2
tp151
a(Vthis
p152
g2
tp153
a(Vis
p154
g2
tp155
a(Vthe
p156
g2
tp157
a(Vtreat
p158
g2
tp159
a(Vthat
p160
g2
tp161
a(Vseduces
p162
g2
tp163
a(VEdmund
p164
VPERSON
p165
tp166
a(Vinto
p167
g2
tp168
a(Vselling
p169
g2
tp170
a(Vout
p171
g2
tp172
a(Vhis
p173
g2
tp174
a(VBrother
p175
g2
tp176
a(Vand
p177
g2
tp178
a(VSisters
p179
g2
tp180
a(Vto
p181
g2
tp182
a(Vthe
p183
g2
tp184
a(VWitch.
p185
g2
tp186
a.