(lp0
(VMy
p1
VO
p2
tp3
a(Vgolden
p4
g2
tp5
a(Vretriever
p6
g2
tp7
a(Vis
p8
g2
tp9
a(Vone
p10
g2
tp11
a(Vof
p12
g2
tp13
a(Vthe
p14
g2
tp15
a(Vmost
p16
g2
tp17
a(Vpicky
p18
g2
tp19
a(Vdogs
p20
g2
tp21
a(VI've
p22
g2
tp23
a(Vever
p24
g2
tp25
a(Vmet.
p26
g2
tp27
a(VAfter
p28
g2
tp29
a(Vexperimenting
p30
g2
tp31
a(Vwith
p32
g2
tp33
a(Vvarious
p34
g2
tp35
a(Vtypes
p36
g2
tp37
a(Vof
p38
g2
tp39
a(Vfood,
p40
g2
tp41
a(VI
p42
g2
tp43
a(Vhave
p44
g2
tp45
a(Vfound
p46
g2
tp47
a(Vshe
p48
g2
tp49
a(Vloves
p50
g2
tp51
a(Vnatural
p52
g2
tp53
a(Vbalance.
p54
g2
tp55
a(VWhat
p56
g2
tp57
a(g42
g2
tp58
a(Vreally
p59
g2
tp60
a(Vlike
p61
g2
tp62
a(Vabout
p63
g2
tp64
a(Vnatural
p65
g2
tp66
a(Vbalance
p67
g2
tp68
a(Vis
p69
g2
tp70
a(Vthe
p71
g2
tp72
a(Vfact
p73
g2
tp74
a(Vthat
p75
g2
tp76
a(Vit
p77
g2
tp78
a(Vhas
p79
g2
tp80
a(Vmultiple
p81
g2
tp82
a(Vflavors
p83
g2
tp84
a(Vin
p85
g2
tp86
a(Vdry
p87
g2
tp88
a(Vand
p89
g2
tp90
a(Vwet
p91
g2
tp92
a(Vvarieties.
p93
g2
tp94
a(g42
g2
tp95
a(Vmix
p96
g2
tp97
a(Vher
p98
g2
tp99
a(Vdry
p100
g2
tp101
a(Vfood
p102
g2
tp103
a(Vwith
p104
g2
tp105
a(Va
p106
g2
tp107
a(Vlittle
p108
g2
tp109
a(Vwet
p110
g2
tp111
a(Vfood
p112
g2
tp113
a(Vand
p114
g2
tp115
a(Vmy
p116
g2
tp117
a(Vgolden
p118
g2
tp119
a(Vloves
p120
g2
tp121
a(Vit.
p122
g2
tp123
a(VFurthermore,
p124
g2
tp125
a(g42
g2
tp126
a(Vdo
p127
g2
tp128
a(Vlike
p129
g2
tp130
a(Vmixing
p131
g2
tp132
a(Vup
p133
g2
tp134
a(Vthe
p135
g2
tp136
a(Vflavors
p137
g2
tp138
a(Veach
p139
g2
tp140
a(Vtime
p141
g2
tp142
a(Vas
p143
g2
tp144
a(g42
g2
tp145
a(Vthink
p146
g2
tp147
a(Vthe
p148
g2
tp149
a(Vsame
p150
g2
tp151
a(Vmeal
p152
g2
tp153
a(Vday
p154
g2
tp155
a(Vover
p156
g2
tp157
a(Vday
p158
g2
tp159
a(Vmight
p160
g2
tp161
a(Vget
p162
g2
tp163
a(g106
g2
tp164
a(Vlittle
p165
g2
tp166
a(Vboring,
p167
g2
tp168
a(Vso
p169
g2
tp170
a(g42
g2
tp171
a(Vfigured
p172
g2
tp173
a(Vwhy
p174
g2
tp175
a(Vnot.
p176
g2
tp177
a(g42
g2
tp178
a(Vtend
p179
g2
tp180
a(Vto
p181
g2
tp182
a(Vstay
p183
g2
tp184
a(Vaway
p185
g2
tp186
a(Vfrom
p187
g2
tp188
a(Vthe
p189
g2
tp190
a(Vfish
p191
g2
tp192
a(Vtype
p193
g2
tp194
a(Vthough
p195
g2
tp196
a(Vas
p197
g2
tp198
a(Vit
p199
g2
tp200
a(Vsmells...Additionally,
p201
g2
tp202
a(g42
g2
tp203
a(Vstarted
p204
g2
tp205
a(Vpurchasing
p206
g2
tp207
a(Voff
p208
g2
tp209
a(VAmazon
p210
VORGANIZATION
p211
tp212
a(Vbecause
p213
g2
tp214
a(VPetco
p215
VORGANIZATION
p216
tp217
a(Vdidn't
p218
g2
tp219
a(Vhave
p220
g2
tp221
a(Vthe
p222
g2
tp223
a(Vwet
p224
g2
tp225
a(Vfood
p226
g2
tp227
a(Vbox
p228
g2
tp229
a(Vand
p230
g2
tp231
a(Vonly
p232
g2
tp233
a(Vhad
p234
g2
tp235
a(g106
g2
tp236
a(Vcouple
p237
g2
tp238
a(Vof
p239
g2
tp240
a(Vcans.
p241
g2
tp242
a(g42
g2
tp243
a(Vcame
p244
g2
tp245
a(Vhome
p246
g2
tp247
a(Vand
p248
g2
tp249
a(Vto
p250
g2
tp251
a(Vmy
p252
g2
tp253
a(Vsurprise
p254
g2
tp255
a(Vrealized
p256
g2
tp257
a(Vthat
p258
g2
tp259
a(g42
g2
tp260
a(Vcould
p261
g2
tp262
a(Vsave
p263
g2
tp264
a(V$20
p265
g2
tp266
a(Veach
p267
g2
tp268
a(Vtime
p269
g2
tp270
a(g42
g2
tp271
a(Vbought
p272
g2
tp273
a(Vdog
p274
g2
tp275
a(Vfood
p276
g2
tp277
a(Vif
p278
g2
tp279
a(g42
g2
tp280
a(Vjust
p281
g2
tp282
a(Vbuy
p283
g2
tp284
a(Vit
p285
g2
tp286
a(Voff
p287
g2
tp288
a(VAmazon.All
p289
g2
tp290
a(Vin
p291
g2
tp292
a(Vall,
p293
g2
tp294
a(g42
g2
tp295
a(Vdefinitely
p296
g2
tp297
a(Vrecommend
p298
g2
tp299
a(Vand
p300
g2
tp301
a(Vgive
p302
g2
tp303
a(Vmy
p304
g2
tp305
a(Vstamp
p306
g2
tp307
a(Vof
p308
g2
tp309
a(Vapproval
p310
g2
tp311
a(Vto
p312
g2
tp313
a(Vnatural
p314
g2
tp315
a(Vbalance
p316
g2
tp317
a(Vdog
p318
g2
tp319
a(Vfood.
p320
g2
tp321
a(VWhile
p322
g2
tp323
a(g42
g2
tp324
a(Vhave
p325
g2
tp326
a(Vnever
p327
g2
tp328
a(Veaten
p329
g2
tp330
a(Vit,
p331
g2
tp332
a(Vmy
p333
g2
tp334
a(Vdog
p335
g2
tp336
a(Vseems
p337
g2
tp338
a(Vto
p339
g2
tp340
a(Vlove
p341
g2
tp342
a(Vit.
p343
g2
tp344
a.