(lp0
(VI
p1
VO
p2
tp3
a(Vordered
p4
g2
tp5
a(Vthis
p6
g2
tp7
a(Vfor
p8
g2
tp9
a(Vmy
p10
g2
tp11
a(Vwife
p12
g2
tp13
a(Vas
p14
g2
tp15
a(Vit
p16
g2
tp17
a(Vwas
p18
g2
tp19
a(Vreccomended
p20
g2
tp21
a(Vby
p22
g2
tp23
a(Vour
p24
g2
tp25
a(Vdaughter.
p26
g2
tp27
a(VShe
p28
g2
tp29
a(Vhas
p30
g2
tp31
a(Vthis
p32
g2
tp33
a(Valmost
p34
g2
tp35
a(Vevery
p36
g2
tp37
a(Vmorning
p38
g2
tp39
a(Vand
p40
g2
tp41
a(Vlikes
p42
g2
tp43
a(Vall
p44
g2
tp45
a(Vflavors.
p46
g2
tp47
a(VShe's
p48
g2
tp49
a(Vhappy,
p50
g2
tp51
a(VI'm
p52
g2
tp53
a(Vhappy!!!McCANN'S
p54
g2
tp55
a(VInstant
p56
g2
tp57
a(VIrish
p58
g2
tp59
a(VOatmeal,
p60
g2
tp61
a(VVariety
p62
g2
tp63
a(VPack
p64
g2
tp65
a(Vof
p66
g2
tp67
a(VRegular,
p68
g2
tp69
a(VApples
p70
g2
tp71
a(V&
p72
g2
tp73
a(VCinnamon,
p74
g2
tp75
a(Vand
p76
g2
tp77
a(VMaple
p78
g2
tp79
a(g72
g2
tp80
a(VBrown
p81
g2
tp82
a(VSugar,
p83
g2
tp84
a(V10-Count
p85
g2
tp86
a(VBoxes
p87
g2
tp88
a(V(Pack
p89
g2
tp90
a(Vof
p91
g2
tp92
a(V6)
p93
g2
tp94
a.