(lp0
(VThese
p1
VO
p2
tp3
a(Vtaste
p4
g2
tp5
a(Vreally
p6
g2
tp7
a(Vgood.
p8
g2
tp9
a(VI
p10
g2
tp11
a(Vhave
p12
g2
tp13
a(Vbeen
p14
g2
tp15
a(Vpurchasing
p16
g2
tp17
a(Va
p18
g2
tp19
a(Vdifferent
p20
g2
tp21
a(Vbrand
p22
g2
tp23
a(Vand
p24
g2
tp25
a(Vthese
p26
g2
tp27
a(Vare
p28
g2
tp29
a(Vvery
p30
g2
tp31
a(Vsimilar
p32
g2
tp33
a(Vin
p34
g2
tp35
a(Vtaste
p36
g2
tp37
a(Vand
p38
g2
tp39
a(Vtexture.
p40
g2
tp41
a(g10
g2
tp42
a(Vagree
p43
g2
tp44
a(Vwith
p45
g2
tp46
a(Vthe
p47
g2
tp48
a(Vother
p49
g2
tp50
a(Vreviewer
p51
g2
tp52
a(Vregarding
p53
g2
tp54
a(Vordering
p55
g2
tp56
a(Vin
p57
g2
tp58
a(Vthe
p59
g2
tp60
a(Vsummer.
p61
g2
tp62
a(VThere
p63
g2
tp64
a(Vis
p65
g2
tp66
a(Vno
p67
g2
tp68
a(Vinsulating
p69
g2
tp70
a(Vpackaging
p71
g2
tp72
a(Vwith
p73
g2
tp74
a(Vice
p75
g2
tp76
a(Vpacks
p77
g2
tp78
a(Vso
p79
g2
tp80
a(Vthey
p81
g2
tp82
a(Vwill
p83
g2
tp84
a(Vmelt
p85
g2
tp86
a(Vin
p87
g2
tp88
a(Vwarm
p89
g2
tp90
a(Vweather
p91
g2
tp92
a(Vlike
p93
g2
tp94
a(Vall
p95
g2
tp96
a(Vchocolate
p97
g2
tp98
a(Vfood
p99
g2
tp100
a(Vitems.
p101
g2
tp102
a(VOrder
p103
g2
tp104
a(Vin
p105
g2
tp106
a(Vcold
p107
g2
tp108
a(Vweather
p109
g2
tp110
a(Vand
p111
g2
tp112
a(Vbuy
p113
g2
tp114
a(Venough
p115
g2
tp116
a(Vto
p117
g2
tp118
a(Vlast!!!
p119
g2
tp120
a.