(lp0
(VMcCann's
p1
VO
p2
tp3
a(Vmakes
p4
g2
tp5
a(Voatmeal
p6
g2
tp7
a(Vfor
p8
g2
tp9
a(Vevery
p10
g2
tp11
a(Voatmeal
p12
g2
tp13
a(Vconnoisseur,
p14
g2
tp15
a(Vwhether
p16
g2
tp17
a(Vone
p18
g2
tp19
a(Vlikes
p20
g2
tp21
a(Vit
p22
g2
tp23
a(Vfrom
p24
g2
tp25
a(Vthe
p26
g2
tp27
a(Vraw
p28
g2
tp29
a(Vpellet
p30
g2
tp31
a(Vstate
p32
g2
tp33
a(Vthat
p34
g2
tp35
a(Vcooks
p36
g2
tp37
a(Vfor
p38
g2
tp39
a(Vhalf
p40
g2
tp41
a(Van
p42
g2
tp43
a(Vhour,
p44
g2
tp45
a(Vto
p46
g2
tp47
a(Vthe
p48
g2
tp49
a(Vsloth
p50
g2
tp51
a(Vaddled
p52
g2
tp53
a(Vinstant,
p54
g2
tp55
a(Vwhich
p56
g2
tp57
a(Vcan
p58
g2
tp59
a(Vbe
p60
g2
tp61
a(Vdone
p62
g2
tp63
a(Vin
p64
g2
tp65
a(Vthe
p66
g2
tp67
a(Vmicrowave
p68
g2
tp69
a(Vfor
p70
g2
tp71
a(Vunder
p72
g2
tp73
a(Vthree
p74
g2
tp75
a(Vminutes.
p76
g2
tp77
a(VIt's
p78
g2
tp79
a(Vall
p80
g2
tp81
a(Vgood,
p82
g2
tp83
a(Vthat's
p84
g2
tp85
a(Vfor
p86
g2
tp87
a(Vsure,
p88
g2
tp89
a(Vand
p90
g2
tp91
a(Vthe
p92
g2
tp93
a(Vbeauty
p94
g2
tp95
a(Vof
p96
g2
tp97
a(Vthe
p98
g2
tp99
a(Vinstant
p100
g2
tp101
a(Vvariety
p102
g2
tp103
a(Vis
p104
g2
tp105
a(Vthat
p106
g2
tp107
a(Vit
p108
g2
tp109
a(Vis
p110
g2
tp111
a(Vavailable
p112
g2
tp113
a(Vin
p114
g2
tp115
a(Vdifferent
p116
g2
tp117
a(Vflavors
p118
g2
tp119
a(Vas
p120
g2
tp121
a(Vwell
p122
g2
tp123
a(Vas
p124
g2
tp125
a(Vregular.
p126
g2
tp127
a(VThis
p128
g2
tp129
a(Vvariety
p130
g2
tp131
a(Vpack
p132
g2
tp133
a(Vallows
p134
g2
tp135
a(Vdifferent
p136
g2
tp137
a(Vtastes
p138
g2
tp139
a(Vto
p140
g2
tp141
a(Vbe
p142
g2
tp143
a(Vexplored,
p144
g2
tp145
a(Vas
p146
g2
tp147
a(Vwell
p148
g2
tp149
a(Vas
p150
g2
tp151
a(Vgiving
p152
g2
tp153
a(Vyou
p154
g2
tp155
a(Va
p156
g2
tp157
a(Vchance
p158
g2
tp159
a(Vto
p160
g2
tp161
a(Vexperience
p162
g2
tp163
a(Vthe
p164
g2
tp165
a(Vdifference
p166
g2
tp167
a(Vbetween
p168
g2
tp169
a(VMcCann's
p170
g2
tp171
a(Vand
p172
g2
tp173
a(Vother
p174
g2
tp175
a(Vwell-known
p176
g2
tp177
a(Voatmeals.
p178
g2
tp179
a(VWhat
p180
g2
tp181
a(VI
p182
g2
tp183
a(Vpersonally
p184
g2
tp185
a(Vlike
p186
g2
tp187
a(Vabout
p188
g2
tp189
a(VMcCann's
p190
g2
tp191
a(Vis
p192
g2
tp193
a(Vthat
p194
g2
tp195
a(Vit
p196
g2
tp197
a(Vcooks
p198
g2
tp199
a(Vup
p200
g2
tp201
a(Vthicker
p202
g2
tp203
a(Vand
p204
g2
tp205
a(Vwith
p206
g2
tp207
a(Vmore
p208
g2
tp209
a(Vbody
p210
g2
tp211
a(Vthan
p212
g2
tp213
a(Vthe
p214
g2
tp215
a(Vtop
p216
g2
tp217
a(Vbrand
p218
g2
tp219
a(Vhere
p220
g2
tp221
a(Vin
p222
g2
tp223
a(VAmerica.
p224
g2
tp225
a(VThe
p226
g2
tp227
a(VApples
p228
g2
tp229
a(V&
p230
g2
tp231
a(VCinnamon,
p232
g2
tp233
a(Vthough,
p234
g2
tp235
a(Vtends
p236
g2
tp237
a(Vto
p238
g2
tp239
a(Vbe
p240
g2
tp241
a(g156
g2
tp242
a(Vlittle
p243
g2
tp244
a(Vliquidy
p245
g2
tp246
a(Vso
p247
g2
tp248
a(Vyou
p249
g2
tp250
a(Vmay
p251
g2
tp252
a(Vwant
p253
g2
tp254
a(Vto
p255
g2
tp256
a(Vexperiment
p257
g2
tp258
a(Vwith
p259
g2
tp260
a(Vthe
p261
g2
tp262
a(Vamount
p263
g2
tp264
a(Vof
p265
g2
tp266
a(Vwater
p267
g2
tp268
a(Vyou
p269
g2
tp270
a(Vadd.
p271
g2
tp272
a(VIn
p273
g2
tp274
a(Vmy
p275
g2
tp276
a(V1300watt
p277
g2
tp278
a(Vmicrowave
p279
g2
tp280
a(Vthe
p281
g2
tp282
a(Voatmeal
p283
g2
tp284
a(Vcooks
p285
g2
tp286
a(Vup
p287
g2
tp288
a(Vin
p289
g2
tp290
a(Vabout
p291
g2
tp292
a(Vone
p293
g2
tp294
a(Vminute
p295
g2
tp296
a(Vand
p297
g2
tp298
a(Vtwenty-seven
p299
g2
tp300
a(Vseconds,
p301
g2
tp302
a(Vso
p303
g2
tp304
a(Vyou
p305
g2
tp306
a(Vshould
p307
g2
tp308
a(Valso
p309
g2
tp310
a(Vwatch
p311
g2
tp312
a(Vthat
p313
g2
tp314
a(Vto
p315
g2
tp316
a(Vget
p317
g2
tp318
a(g156
g2
tp319
a(Vhandle
p320
g2
tp321
a(Von
p322
g2
tp323
a(Vhow
p324
g2
tp325
a(Vmuch
p326
g2
tp327
a(Vtime
p328
g2
tp329
a(Vand
p330
g2
tp331
a(Vwater
p332
g2
tp333
a(Vto
p334
g2
tp335
a(Vuse.
p336
g2
tp337
a(VThe
p338
g2
tp339
a(Vonly
p340
g2
tp341
a(Vbad
p342
g2
tp343
a(Vthing
p344
g2
tp345
a(V--
p346
g2
tp347
a(Vif
p348
g2
tp349
a(Vyou
p350
g2
tp351
a(Vcan
p352
g2
tp353
a(Vconsider
p354
g2
tp355
a(Vit
p356
g2
tp357
a(g156
g2
tp358
a(Vbad
p359
g2
tp360
a(Vthing
p361
g2
tp362
a(V--
p363
g2
tp364
a(Vabout
p365
g2
tp366
a(Vthis
p367
g2
tp368
a(Voffering
p369
g2
tp370
a(Vis
p371
g2
tp372
a(Vthat
p373
g2
tp374
a(Vyou
p375
g2
tp376
a(Vhave
p377
g2
tp378
a(Vto
p379
g2
tp380
a(Vbuy
p381
g2
tp382
a(Vin
p383
g2
tp384
a(Vlot
p385
g2
tp386
a(Vso
p387
g2
tp388
a(Vyou'll
p389
g2
tp390
a(Vend
p391
g2
tp392
a(Vup
p393
g2
tp394
a(Vwith
p395
g2
tp396
a(Vsix
p397
g2
tp398
a(Vten-count
p399
g2
tp400
a(Vboxes.
p401
g2
tp402
a(VThis
p403
g2
tp404
a(Vis
p405
g2
tp406
a(Vgood
p407
g2
tp408
a(Vif
p409
g2
tp410
a(Vyou
p411
g2
tp412
a(Vhave
p413
g2
tp414
a(g156
g2
tp415
a(Vwhole
p416
g2
tp417
a(Vfamily
p418
g2
tp419
a(Vof
p420
g2
tp421
a(Voatmeal-eaters,
p422
g2
tp423
a(Vbut
p424
g2
tp425
a(Vif
p426
g2
tp427
a(Vyou're
p428
g2
tp429
a(g156
g2
tp430
a(Vsingle
p431
g2
tp432
a(Vperson
p433
g2
tp434
a(Valone
p435
g2
tp436
a(V--
p437
g2
tp438
a(Vwell,
p439
g2
tp440
a(Vlove
p441
g2
tp442
a(Voatmeal.
p443
g2
tp444
a.