(lp0
(VGrape
p1
VO
p2
tp3
a(Vgummy
p4
g2
tp5
a(Vbears
p6
g2
tp7
a(Vare
p8
g2
tp9
a(Vhard
p10
g2
tp11
a(Vto
p12
g2
tp13
a(Vfind
p14
g2
tp15
a(Vin
p16
g2
tp17
a(Vmy
p18
g2
tp19
a(Varea.
p20
g2
tp21
a(VIn
p22
g2
tp23
a(Vfact
p24
g2
tp25
a(Vpretty
p26
g2
tp27
a(Vmuch
p28
g2
tp29
a(Vanyone
p30
g2
tp31
a(VI
p32
g2
tp33
a(Vtalk
p34
g2
tp35
a(Vto
p36
g2
tp37
a(Vabout
p38
g2
tp39
a(Vgrape
p40
g2
tp41
a(Vgummy
p42
g2
tp43
a(Vbears
p44
g2
tp45
a(Vthey
p46
g2
tp47
a(Vthink
p48
g2
tp49
a(VI'm
p50
g2
tp51
a(Vlying.
p52
g2
tp53
a(VSo
p54
g2
tp55
a(g32
g2
tp56
a(Vbought
p57
g2
tp58
a(V10lbs...
p59
g2
tp60
a(V:
p61
g2
tp62
a(V)
p63
g2
tp64
a(VThese
p65
g2
tp66
a(Vbears
p67
g2
tp68
a(Vare
p69
g2
tp70
a(Va
p71
g2
tp72
a(Vlittle
p73
g2
tp74
a(Vbit
p75
g2
tp76
a(Vbigger
p77
g2
tp78
a(Vthen
p79
g2
tp80
a(Vthe
p81
g2
tp82
a(Vother
p83
g2
tp84
a(Vbrands
p85
g2
tp86
a(Vand
p87
g2
tp88
a(Vhave
p89
g2
tp90
a(Vkind
p91
g2
tp92
a(Vof
p93
g2
tp94
a(Vsour
p95
g2
tp96
a(Vkick,
p97
g2
tp98
a(Vbut
p99
g2
tp100
a(Vnothing
p101
g2
tp102
a(Vto
p103
g2
tp104
a(Vstrong.
p105
g2
tp106
a(g32
g2
tp107
a(Vlove
p108
g2
tp109
a(Vgrape
p110
g2
tp111
a(Vflavored
p112
g2
tp113
a(Vcandysoda
p114
g2
tp115
a(Vand
p116
g2
tp117
a(Vthese
p118
g2
tp119
a(Vare
p120
g2
tp121
a(Vpretty
p122
g2
tp123
a(Vgood.
p124
g2
tp125
a(VThere
p126
g2
tp127
a(Vis
p128
g2
tp129
a(Vanother
p130
g2
tp131
a(Vcompany
p132
g2
tp133
a(Vthat
p134
g2
tp135
a(Vmakes
p136
g2
tp137
a(Vgrape
p138
g2
tp139
a(Vgummy
p140
g2
tp141
a(Vbears
p142
g2
tp143
a(Vthat
p144
g2
tp145
a(Vare
p146
g2
tp147
a(g71
g2
tp148
a(Vlittle
p149
g2
tp150
a(Vbit
p151
g2
tp152
a(Vbetter
p153
g2
tp154
a(Vin
p155
g2
tp156
a(Vmy
p157
g2
tp158
a(Vopinion,
p159
g2
tp160
a(Vbut
p161
g2
tp162
a(Vthese
p163
g2
tp164
a(Vare
p165
g2
tp166
a(Vwell
p167
g2
tp168
a(Vworth
p169
g2
tp170
a(Vit
p171
g2
tp172
a(Vfor
p173
g2
tp174
a(Vthe
p175
g2
tp176
a(Vprice.
p177
g2
tp178
a(g32
g2
tp179
a(Vlike
p180
g2
tp181
a(Vto
p182
g2
tp183
a(Vuse
p184
g2
tp185
a(Vthe
p186
g2
tp187
a(Vgummy
p188
g2
tp189
a(Vbears
p190
g2
tp191
a(Vin
p192
g2
tp193
a(Vhome
p194
g2
tp195
a(Vmade
p196
g2
tp197
a(VPopsicles
p198
g2
tp199
a(Vwith
p200
g2
tp201
a(Vflavored
p202
g2
tp203
a(Vsports
p204
g2
tp205
a(Vdrink.
p206
g2
tp207
a(VThe
p208
g2
tp209
a(Vsalt
p210
g2
tp211
a(Vin
p212
g2
tp213
a(Vthe
p214
g2
tp215
a(Vsports
p216
g2
tp217
a(Vdrink
p218
g2
tp219
a(Vmakes
p220
g2
tp221
a(Vfor
p222
g2
tp223
a(Vsofter
p224
g2
tp225
a(Vpopsicles,
p226
g2
tp227
a(Vand
p228
g2
tp229
a(Vthe
p230
g2
tp231
a(Vgummy
p232
g2
tp233
a(Vbears
p234
g2
tp235
a(Vare
p236
g2
tp237
a(Vawesome
p238
g2
tp239
a(Vfrozen.
p240
g2
tp241
a(VThey
p242
g2
tp243
a(Vare
p244
g2
tp245
a(Vdelicious!
p246
g2
tp247
a.