(lp0
(VI
p1
VO
p2
tp3
a(Vwas
p4
g2
tp5
a(Vso
p6
g2
tp7
a(Vglad
p8
g2
tp9
a(VAmazon
p10
VLOCATION
p11
tp12
a(Vcarried
p13
g2
tp14
a(Vthese
p15
g2
tp16
a(Vbatteries.
p17
g2
tp18
a(g1
g2
tp19
a(Vhave
p20
g2
tp21
a(Va
p22
g2
tp23
a(Vhard
p24
g2
tp25
a(Vtime
p26
g2
tp27
a(Vfinding
p28
g2
tp29
a(Vthem
p30
g2
tp31
a(Velsewhere
p32
g2
tp33
a(Vbecause
p34
g2
tp35
a(Vthey
p36
g2
tp37
a(Vare
p38
g2
tp39
a(Vsuch
p40
g2
tp41
a(g22
g2
tp42
a(Vunique
p43
g2
tp44
a(Vsize.
p45
g2
tp46
a(g1
g2
tp47
a(Vneed
p48
g2
tp49
a(Vthem
p50
g2
tp51
a(Vfor
p52
g2
tp53
a(Vmy
p54
g2
tp55
a(Vgarage
p56
g2
tp57
a(Vdoor
p58
g2
tp59
a(Vopener.Great
p60
g2
tp61
a(Vdeal
p62
g2
tp63
a(Vfor
p64
g2
tp65
a(Vthe
p66
g2
tp67
a(Vprice.
p68
g2
tp69
a.