(lp0
(VMy
p1
VO
p2
tp3
a(Vshepherdcollie
p4
g2
tp5
a(Vmix
p6
g2
tp7
a(Vhas
p8
g2
tp9
a(VIBS.
p10
g2
tp11
a(VOur
p12
g2
tp13
a(Vvet
p14
g2
tp15
a(Vrecommended
p16
g2
tp17
a(Va
p18
g2
tp19
a(Vlimited
p20
g2
tp21
a(Vingredient
p22
g2
tp23
a(Vfood.
p24
g2
tp25
a(VThis
p26
g2
tp27
a(Vhas
p28
g2
tp29
a(Vreally
p30
g2
tp31
a(Vhelped
p32
g2
tp33
a(Vher
p34
g2
tp35
a(Vsymptoms
p36
g2
tp37
a(Vand
p38
g2
tp39
a(Vshe
p40
g2
tp41
a(Vlikes
p42
g2
tp43
a(Vit.
p44
g2
tp45
a(VI
p46
g2
tp47
a(Vwill
p48
g2
tp49
a(Valways
p50
g2
tp51
a(Vbuy
p52
g2
tp53
a(Vit
p54
g2
tp55
a(Vfrom
p56
g2
tp57
a(VAmazon...it's
p58
g2
tp59
a(V$10
p60
g2
tp61
a(Vcheaper
p62
g2
tp63
a(Vand
p64
g2
tp65
a(Vfree
p66
g2
tp67
a(Vshipping!
p68
g2
tp69
a.