(lp0
(VI've
p1
VO
p2
tp3
a(Vbeen
p4
g2
tp5
a(Vvery
p6
g2
tp7
a(Vpleased
p8
g2
tp9
a(Vwith
p10
g2
tp11
a(Vthe
p12
g2
tp13
a(VNatural
p14
g2
tp15
a(VBalance
p16
g2
tp17
a(Vdog
p18
g2
tp19
a(Vfood.
p20
g2
tp21
a(VOur
p22
g2
tp23
a(Vdogs
p24
g2
tp25
a(Vhave
p26
g2
tp27
a(Vhad
p28
g2
tp29
a(Vissues
p30
g2
tp31
a(Vwith
p32
g2
tp33
a(Vother
p34
g2
tp35
a(Vdog
p36
g2
tp37
a(Vfoods
p38
g2
tp39
a(Vin
p40
g2
tp41
a(Vthe
p42
g2
tp43
a(Vpast
p44
g2
tp45
a(Vand
p46
g2
tp47
a(VI
p48
g2
tp49
a(Vhad
p50
g2
tp51
a(Vsomeone
p52
g2
tp53
a(Vrecommend
p54
g2
tp55
a(VNatural
p56
g2
tp57
a(VBalance
p58
g2
tp59
a(Vgrain
p60
g2
tp61
a(Vfree
p62
g2
tp63
a(Vsince
p64
g2
tp65
a(Vit
p66
g2
tp67
a(Vis
p68
g2
tp69
a(Vpossible
p70
g2
tp71
a(Vthey
p72
g2
tp73
a(Vwere
p74
g2
tp75
a(Vallergic
p76
g2
tp77
a(Vto
p78
g2
tp79
a(Vgrains.
p80
g2
tp81
a(VSince
p82
g2
tp83
a(Vswitching
p84
g2
tp85
a(g48
g2
tp86
a(Vhaven't
p87
g2
tp88
a(Vhad
p89
g2
tp90
a(Vany
p91
g2
tp92
a(Vissues.
p93
g2
tp94
a(VIt
p95
g2
tp96
a(Vis
p97
g2
tp98
a(Valso
p99
g2
tp100
a(Vhelpful
p101
g2
tp102
a(Vthat
p103
g2
tp104
a(Vhave
p105
g2
tp106
a(Vhave
p107
g2
tp108
a(Vdifferent
p109
g2
tp110
a(Vkibble
p111
g2
tp112
a(Vsize
p113
g2
tp114
a(Vfor
p115
g2
tp116
a(Vlargersmaller
p117
g2
tp118
a(Vsized
p119
g2
tp120
a(Vdogs.
p121
g2
tp122
a.