(lp0
(VI
p1
VO
p2
tp3
a(Vbought
p4
g2
tp5
a(Vthese
p6
g2
tp7
a(Vfor
p8
g2
tp9
a(Vmy
p10
g2
tp11
a(Vhusband
p12
g2
tp13
a(Vwho
p14
g2
tp15
a(Vis
p16
g2
tp17
a(Vcurrently
p18
g2
tp19
a(Voverseas.
p20
g2
tp21
a(VHe
p22
g2
tp23
a(Vloves
p24
g2
tp25
a(Vthese,
p26
g2
tp27
a(Vand
p28
g2
tp29
a(Vapparently
p30
g2
tp31
a(Vhis
p32
g2
tp33
a(Vstaff
p34
g2
tp35
a(Vlikes
p36
g2
tp37
a(Vthem
p38
g2
tp39
a(Valso.There
p40
g2
tp41
a(Vare
p42
g2
tp43
a(Vgenerous
p44
g2
tp45
a(Vamounts
p46
g2
tp47
a(Vof
p48
g2
tp49
a(VTwizzlers
p50
g2
tp51
a(Vin
p52
g2
tp53
a(Veach
p54
g2
tp55
a(V16-ounce
p56
g2
tp57
a(Vbag,
p58
g2
tp59
a(Vand
p60
g2
tp61
a(Vthis
p62
g2
tp63
a(Vwas
p64
g2
tp65
a(Vwell
p66
g2
tp67
a(Vworth
p68
g2
tp69
a(Vthe
p70
g2
tp71
a(Vprice.
p72
g2
tp73
a(VTwizzlers,
p74
g2
tp75
a(VStrawberry,
p76
g2
tp77
a(V16-Ounce
p78
g2
tp79
a(VBags
p80
g2
tp81
a(V(Pack
p82
g2
tp83
a(Vof
p84
g2
tp85
a(V6)
p86
g2
tp87
a.