(lp0
(VGood
p1
VO
p2
tp3
a(Voatmeal.
p4
g2
tp5
a(VI
p6
g2
tp7
a(Vlike
p8
g2
tp9
a(Vthe
p10
g2
tp11
a(Vapple
p12
g2
tp13
a(Vcinnamon
p14
g2
tp15
a(Vthe
p16
g2
tp17
a(Vbest.
p18
g2
tp19
a(VThough
p20
g2
tp21
a(g6
g2
tp22
a(Vwouldn't
p23
g2
tp24
a(Vfollow
p25
g2
tp26
a(Vthe
p27
g2
tp28
a(Vdirections
p29
g2
tp30
a(Von
p31
g2
tp32
a(Vthe
p33
g2
tp34
a(Vpackage
p35
g2
tp36
a(Vsince
p37
g2
tp38
a(Vit
p39
g2
tp40
a(Valways
p41
g2
tp42
a(Vcomes
p43
g2
tp44
a(Vout
p45
g2
tp46
a(Vtoo
p47
g2
tp48
a(Vsoupy
p49
g2
tp50
a(Vfor
p51
g2
tp52
a(Vmy
p53
g2
tp54
a(Vtaste.
p55
g2
tp56
a(VThat
p57
g2
tp58
a(Vcould
p59
g2
tp60
a(Vjust
p61
g2
tp62
a(Vbe
p63
g2
tp64
a(Vme
p65
g2
tp66
a(Vsince
p67
g2
tp68
a(g6
g2
tp69
a(Vlike
p70
g2
tp71
a(Vmy
p72
g2
tp73
a(Voatmeal
p74
g2
tp75
a(Vreally
p76
g2
tp77
a(Vthick
p78
g2
tp79
a(Vto
p80
g2
tp81
a(Vadd
p82
g2
tp83
a(Vsome
p84
g2
tp85
a(Vmilk
p86
g2
tp87
a(Von
p88
g2
tp89
a(Vtop
p90
g2
tp91
a(Vof.
p92
g2
tp93
a.