(lp0
(VMcCann's
p1
VORGANIZATION
p2
tp3
a(VOatmeal
p4
VORGANIZATION
p5
tp6
a(Vis
p7
VO
p8
tp9
a(Va
p10
g8
tp11
a(Vgood
p12
g8
tp13
a(Vquality
p14
g8
tp15
a(Vchoice.
p16
g8
tp17
a(VOur
p18
g8
tp19
a(Vfavorite
p20
g8
tp21
a(Vis
p22
g8
tp23
a(Vthe
p24
g8
tp25
a(VApples
p26
g8
tp27
a(Vand
p28
g8
tp29
a(VCinnamon,
p30
g8
tp31
a(Vbut
p32
g8
tp33
a(Vwe
p34
g8
tp35
a(Vfind
p36
g8
tp37
a(Vthat
p38
g8
tp39
a(Vnone
p40
g8
tp41
a(Vof
p42
g8
tp43
a(Vthese
p44
g8
tp45
a(Vare
p46
g8
tp47
a(Voverly
p48
g8
tp49
a(Vsugary.
p50
g8
tp51
a(VFor
p52
g8
tp53
a(g10
g8
tp54
a(Vgood
p55
g8
tp56
a(Vhot
p57
g8
tp58
a(Vbreakfast
p59
g8
tp60
a(Vin
p61
g8
tp62
a(V2
p63
g8
tp64
a(Vminutes,
p65
g8
tp66
a(Vthis
p67
g8
tp68
a(Vis
p69
g8
tp70
a(Vexcellent.
p71
g8
tp72
a.