(lp0
(VI
p1
VO
p2
tp3
a(Vknow
p4
g2
tp5
a(Vthe
p6
g2
tp7
a(Vproduct
p8
g2
tp9
a(Vtitle
p10
g2
tp11
a(Vsays
p12
g2
tp13
a(VMolecular
p14
g2
tp15
a(VGastronomy,
p16
g2
tp17
a(Vbut
p18
g2
tp19
a(Vdon't
p20
g2
tp21
a(Vlet
p22
g2
tp23
a(Vthat
p24
g2
tp25
a(Vscare
p26
g2
tp27
a(Vyou
p28
g2
tp29
a(Voff.
p30
g2
tp31
a(g1
g2
tp32
a(Vhave
p33
g2
tp34
a(Vbeen
p35
g2
tp36
a(Vlooking
p37
g2
tp38
a(Vfor
p39
g2
tp40
a(Vthis
p41
g2
tp42
a(Vfor
p43
g2
tp44
a(Va
p45
g2
tp46
a(Vwhile
p47
g2
tp48
a(Vnow,
p49
g2
tp50
a(Vnot
p51
g2
tp52
a(Vfor
p53
g2
tp54
a(Vfood
p55
g2
tp56
a(Vscience,
p57
g2
tp58
a(Vbut
p59
g2
tp60
a(Vfor
p61
g2
tp62
a(Vsomething
p63
g2
tp64
a(Vmore
p65
g2
tp66
a(Vdown
p67
g2
tp68
a(Vto
p69
g2
tp70
a(Vearth.
p71
g2
tp72
a(g1
g2
tp73
a(Vuse
p74
g2
tp75
a(Vit
p76
g2
tp77
a(Vto
p78
g2
tp79
a(Vmake
p80
g2
tp81
a(Vmy
p82
g2
tp83
a(Vown
p84
g2
tp85
a(Vcoffee
p86
g2
tp87
a(Vcreamer.I
p88
g2
tp89
a(Vhave
p90
g2
tp91
a(Vto
p92
g2
tp93
a(Vhave
p94
g2
tp95
a(Vmy
p96
g2
tp97
a(Vcoffee
p98
g2
tp99
a(Vblonde
p100
g2
tp101
a(Vand
p102
g2
tp103
a(Vsweet
p104
g2
tp105
a(V-
p106
g2
tp107
a(Vbut
p108
g2
tp109
a(Vthe
p110
g2
tp111
a(Vflavored
p112
g2
tp113
a(Vcreamers
p114
g2
tp115
a(Vare
p116
g2
tp117
a(Vfull
p118
g2
tp119
a(Vof
p120
g2
tp121
a(Vthe
p122
g2
tp123
a(Vbad
p124
g2
tp125
a(Vkinds
p126
g2
tp127
a(Vof
p128
g2
tp129
a(Vfat,
p130
g2
tp131
a(Vand
p132
g2
tp133
a(Vhonestly,
p134
g2
tp135
a(g1
g2
tp136
a(Vhate
p137
g2
tp138
a(Vto
p139
g2
tp140
a(Vuse
p141
g2
tp142
a(Vmanufactured
p143
g2
tp144
a(V"food"
p145
g2
tp146
a(Vitems.
p147
g2
tp148
a(g1
g2
tp149
a(Vreally
p150
g2
tp151
a(Vdon't
p152
g2
tp153
a(Vthink
p154
g2
tp155
a(Vthey
p156
g2
tp157
a(Vare
p158
g2
tp159
a(Vgood
p160
g2
tp161
a(Vfor
p162
g2
tp163
a(Vthe
p164
g2
tp165
a(Vbody.
p166
g2
tp167
a(VOn
p168
g2
tp169
a(Vthe
p170
g2
tp171
a(Vother
p172
g2
tp173
a(Vhand,
p174
g2
tp175
a(g1
g2
tp176
a(Vhate
p177
g2
tp178
a(Vusing
p179
g2
tp180
a(Vcold
p181
g2
tp182
a(Vmilk
p183
g2
tp184
a(Vor
p185
g2
tp186
a(Vcream,
p187
g2
tp188
a(Vbecause
p189
g2
tp190
a(g1
g2
tp191
a(Vlike
p192
g2
tp193
a(VHOT
p194
g2
tp195
a(Vcoffee.I
p196
g2
tp197
a(Vstumbled
p198
g2
tp199
a(Vacross
p200
g2
tp201
a(Vthis
p202
g2
tp203
a(Von
p204
g2
tp205
a(VAmazon
p206
VLOCATION
p207
tp208
a(Vone
p209
g2
tp210
a(Vday
p211
g2
tp212
a(Vand
p213
g2
tp214
a(Vgot
p215
g2
tp216
a(Vthe
p217
g2
tp218
a(Videa
p219
g2
tp220
a(Vof
p221
g2
tp222
a(Vmaking
p223
g2
tp224
a(Vmy
p225
g2
tp226
a(Vown
p227
g2
tp228
a(Vcreamer.
p229
g2
tp230
a(g1
g2
tp231
a(Valso
p232
g2
tp233
a(Vbought
p234
g2
tp235
a(Vlow-fat
p236
g2
tp237
a(V(non-instant)
p238
g2
tp239
a(Vmilk
p240
g2
tp241
a(Vpowder
p242
g2
tp243
a(Vand
p244
g2
tp245
a(Vregular
p246
g2
tp247
a(Vmilk
p248
g2
tp249
a(Vpowder.
p250
g2
tp251
a(VThe
p252
g2
tp253
a(Vnon-instant
p254
g2
tp255
a(Vlowfat
p256
g2
tp257
a(Vmilk
p258
g2
tp259
a(Vis
p260
g2
tp261
a(g45
g2
tp262
a(Vlittle
p263
g2
tp264
a(Vsweeter
p265
g2
tp266
a(Vand
p267
g2
tp268
a(Vtastes
p269
g2
tp270
a(Vfresher
p271
g2
tp272
a(Vthan
p273
g2
tp274
a(Vregular
p275
g2
tp276
a(Vinstant
p277
g2
tp278
a(Vlow-fat
p279
g2
tp280
a(Vmilk,
p281
g2
tp282
a(Vbut
p283
g2
tp284
a(Vdoes
p285
g2
tp286
a(Vnot
p287
g2
tp288
a(Vdissolve
p289
g2
tp290
a(Vgood
p291
g2
tp292
a(Vin
p293
g2
tp294
a(Vcold
p295
g2
tp296
a(Vwater
p297
g2
tp298
a(g106
g2
tp299
a(Vwhich
p300
g2
tp301
a(Vis
p302
g2
tp303
a(Vnot
p304
g2
tp305
a(g45
g2
tp306
a(Vproblem
p307
g2
tp308
a(Vfor
p309
g2
tp310
a(Vhot
p311
g2
tp312
a(Vcoffee.
p313
g2
tp314
a(VYou
p315
g2
tp316
a(Vwill
p317
g2
tp318
a(Vhave
p319
g2
tp320
a(Vto
p321
g2
tp322
a(Vplay
p323
g2
tp324
a(Vwith
p325
g2
tp326
a(Vthe
p327
g2
tp328
a(Vratios
p329
g2
tp330
a(g106
g2
tp331
a(g1
g2
tp332
a(Vwould
p333
g2
tp334
a(Vnot
p335
g2
tp336
a(Vdo
p337
g2
tp338
a(Vjust
p339
g2
tp340
a(Vthe
p341
g2
tp342
a(Vheavy
p343
g2
tp344
a(Vcream,
p345
g2
tp346
a(Vit
p347
g2
tp348
a(Vmade
p349
g2
tp350
a(Vthe
p351
g2
tp352
a(Vcoffee
p353
g2
tp354
a(Vtoo
p355
g2
tp356
a(Vrich.
p357
g2
tp358
a(VAlso,
p359
g2
tp360
a(g1
g2
tp361
a(Vthink
p362
g2
tp363
a(Vthe
p364
g2
tp365
a(Vpowder
p366
g2
tp367
a(Vis
p368
g2
tp369
a(Vtoo
p370
g2
tp371
a(Vexpensive
p372
g2
tp373
a(Vto
p374
g2
tp375
a(Vjust
p376
g2
tp377
a(Vuse
p378
g2
tp379
a(Von
p380
g2
tp381
a(Vit's
p382
g2
tp383
a(Vown.
p384
g2
tp385
a(g1
g2
tp386
a(Vlike
p387
g2
tp388
a(Vmixing
p389
g2
tp390
a(V13
p391
g2
tp392
a(Vof
p393
g2
tp394
a(Veach
p395
g2
tp396
a(Vtogether.For
p397
g2
tp398
a(Vflavoring,
p399
g2
tp400
a(g1
g2
tp401
a(Vbough
p402
g2
tp403
a(Vcocoa
p404
g2
tp405
a(Vbean
p406
g2
tp407
a(Vpowder,
p408
g2
tp409
a(Vvanilla
p410
g2
tp411
a(Vbean
p412
g2
tp413
a(Vpowder,
p414
g2
tp415
a(Vand
p416
g2
tp417
a(Vcaster
p418
g2
tp419
a(V(superfine)
p420
g2
tp421
a(Vsugar.
p422
g2
tp423
a(g1
g2
tp424
a(Vmix
p425
g2
tp426
a(Vup
p427
g2
tp428
a(Vsmall
p429
g2
tp430
a(Vbatches
p431
g2
tp432
a(Valong
p433
g2
tp434
a(Vwith
p435
g2
tp436
a(Vspices
p437
g2
tp438
a(Vlike
p439
g2
tp440
a(Vcinnamon
p441
g2
tp442
a(Vand
p443
g2
tp444
a(Vnutmeg
p445
g2
tp446
a(Vto
p447
g2
tp448
a(Vmake
p449
g2
tp450
a(Vmy
p451
g2
tp452
a(Vown
p453
g2
tp454
a(Vflavored
p455
g2
tp456
a(Vcreamers.
p457
g2
tp458
a(VIf
p459
g2
tp460
a(Vyou
p461
g2
tp462
a(Vwanted,
p463
g2
tp464
a(Vyou
p465
g2
tp466
a(Vcould
p467
g2
tp468
a(Vuse
p469
g2
tp470
a(g45
g2
tp471
a(Vfake
p472
g2
tp473
a(Vsweetner
p474
g2
tp475
a(Vpowder
p476
g2
tp477
a(Vinstead.
p478
g2
tp479
a(g1
g2
tp480
a(Vmake
p481
g2
tp482
a(Vup
p483
g2
tp484
a(Vsmall
p485
g2
tp486
a(Vamounts
p487
g2
tp488
a(Vthat
p489
g2
tp490
a(g1
g2
tp491
a(Vstore
p492
g2
tp493
a(Vin
p494
g2
tp495
a(Vjelly
p496
g2
tp497
a(Vcanning
p498
g2
tp499
a(Vjars.
p500
g2
tp501
a(g1
g2
tp502
a(Valso
p503
g2
tp504
a(Vuse
p505
g2
tp506
a(Vmy
p507
g2
tp508
a(Vlittle
p509
g2
tp510
a(Vfood
p511
g2
tp512
a(Vchopperfood
p513
g2
tp514
a(Vprocessor
p515
g2
tp516
a(Vto
p517
g2
tp518
a(Vblend
p519
g2
tp520
a(Veverything,
p521
g2
tp522
a(Vso
p523
g2
tp524
a(Vthe
p525
g2
tp526
a(Vsugar
p527
g2
tp528
a(Vis
p529
g2
tp530
a(Vnot
p531
g2
tp532
a(Vheavier
p533
g2
tp534
a(Vand
p535
g2
tp536
a(Vsinks
p537
g2
tp538
a(Vto
p539
g2
tp540
a(Vthe
p541
g2
tp542
a(Vbottom.
p543
g2
tp544
a(VLet
p545
g2
tp546
a(Vit
p547
g2
tp548
a(Vsettle
p549
g2
tp550
a(Vfor
p551
g2
tp552
a(g45
g2
tp553
a(Vbit
p554
g2
tp555
a(Vbefore
p556
g2
tp557
a(Vopening
p558
g2
tp559
a(Vthe
p560
g2
tp561
a(Vtop
p562
g2
tp563
a(Vthough.This
p564
g2
tp565
a(Vstuff
p566
g2
tp567
a(Vtastes
p568
g2
tp569
a(VWAY
p570
g2
tp571
a(Vbetter
p572
g2
tp573
a(Vthan
p574
g2
tp575
a(Vthe
p576
g2
tp577
a(Vstorebought
p578
g2
tp579
a(Vcreamers
p580
g2
tp581
a(Vand
p582
g2
tp583
a(Vit
p584
g2
tp585
a(Vis
p586
g2
tp587
a(Vfun
p588
g2
tp589
a(Vto
p590
g2
tp591
a(Vexperiment
p592
g2
tp593
a(Vand
p594
g2
tp595
a(Vcome
p596
g2
tp597
a(Vup
p598
g2
tp599
a(Vwith
p600
g2
tp601
a(Vyour
p602
g2
tp603
a(Vown
p604
g2
tp605
a(Vflavors.
p606
g2
tp607
a(g1
g2
tp608
a(Vam
p609
g2
tp610
a(Vgoing
p611
g2
tp612
a(Vto
p613
g2
tp614
a(Vtry
p615
g2
tp616
a(Vusing
p617
g2
tp618
a(Vsome
p619
g2
tp620
a(Vessential
p621
g2
tp622
a(Voils
p623
g2
tp624
a(Vnext
p625
g2
tp626
a(Vand
p627
g2
tp628
a(Vsee
p629
g2
tp630
a(Vif
p631
g2
tp632
a(g1
g2
tp633
a(Vcan
p634
g2
tp635
a(Vget
p636
g2
tp637
a(g45
g2
tp638
a(Vgood
p639
g2
tp640
a(Vchocolateorange
p641
g2
tp642
a(Vmix.All
p643
g2
tp644
a(Vof
p645
g2
tp646
a(Vthe
p647
g2
tp648
a(Vingredients
p649
g2
tp650
a(g1
g2
tp651
a(Vmentioned
p652
g2
tp653
a(Vare
p654
g2
tp655
a(Vhere
p656
g2
tp657
a(Vonline.
p658
g2
tp659
a(VTake
p660
g2
tp661
a(Vthe
p662
g2
tp663
a(Vtime
p664
g2
tp665
a(Vto
p666
g2
tp667
a(Vexperiment.
p668
g2
tp669
a(VMaybe
p670
g2
tp671
a(Vyou
p672
g2
tp673
a(Vdon't
p674
g2
tp675
a(Vuse
p676
g2
tp677
a(Vany
p678
g2
tp679
a(Vlow-fat
p680
g2
tp681
a(Vmilk.
p682
g2
tp683
a(VOr
p684
g2
tp685
a(Vdon't
p686
g2
tp687
a(Vadd
p688
g2
tp689
a(Vany
p690
g2
tp691
a(Vflavorings.
p692
g2
tp693
a(VIt
p694
g2
tp695
a(Vis
p696
g2
tp697
a(Vup
p698
g2
tp699
a(Vto
p700
g2
tp701
a(Vyou.
p702
g2
tp703
a(VAlso,
p704
g2
tp705
a(Vwould
p706
g2
tp707
a(Vmake
p708
g2
tp709
a(Vgreat
p710
g2
tp711
a(Vhousewarminghost(ess)
p712
g2
tp713
a(Vgifts.I
p714
g2
tp715
a(Vam
p716
g2
tp717
a(Vsure
p718
g2
tp719
a(Vother
p720
g2
tp721
a(Vmolecular
p722
g2
tp723
a(Vpeople
p724
g2
tp725
a(Vwill
p726
g2
tp727
a(Vbe
p728
g2
tp729
a(Vable
p730
g2
tp731
a(Vto
p732
g2
tp733
a(Vtell
p734
g2
tp735
a(Vyou
p736
g2
tp737
a(Vmore
p738
g2
tp739
a(Vof
p740
g2
tp741
a(Vwhat
p742
g2
tp743
a(Vyou
p744
g2
tp745
a(Vcan
p746
g2
tp747
a(Vdo
p748
g2
tp749
a(Vwith
p750
g2
tp751
a(Vit,
p752
g2
tp753
a(Vand
p754
g2
tp755
a(g1
g2
tp756
a(Vam
p757
g2
tp758
a(Vsure
p759
g2
tp760
a(g1
g2
tp761
a(Vwill
p762
g2
tp763
a(Vexperiment
p764
g2
tp765
a(Vwith
p766
g2
tp767
a(Vit
p768
g2
tp769
a(Vin
p770
g2
tp771
a(Vcooking
p772
g2
tp773
a(g106
g2
tp774
a(Vbut
p775
g2
tp776
a(Vthe
p777
g2
tp778
a(Vmain
p779
g2
tp780
a(Vreason
p781
g2
tp782
a(g1
g2
tp783
a(Vbought
p784
g2
tp785
a(Vit
p786
g2
tp787
a(Vwas
p788
g2
tp789
a(Vto
p790
g2
tp791
a(Vmake
p792
g2
tp793
a(Vmy
p794
g2
tp795
a(Vown
p796
g2
tp797
a(Vcreamer
p798
g2
tp799
a(Vand
p800
g2
tp801
a(Vit
p802
g2
tp803
a(Vworked
p804
g2
tp805
a(Vout
p806
g2
tp807
a(Vgreat.
p808
g2
tp809
a.