(lp0
(VNatural
p1
VORGANIZATION
p2
tp3
a(VBalance
p4
VORGANIZATION
p5
tp6
a(VDry
p7
VORGANIZATION
p8
tp9
a(VDog
p10
VORGANIZATION
p11
tp12
a(VFood
p13
VORGANIZATION
p14
tp15
a(VLamb
p16
VORGANIZATION
p17
tp18
a(VMeal
p19
VORGANIZATION
p20
tp21
a(Vand
p22
VO
p23
tp24
a(VBrown
p25
VPERSON
p26
tp27
a(VRice
p28
VPERSON
p29
tp30
a(VRecipe
p31
VPERSON
p32
tp33
a(Vdid
p34
g23
tp35
a(Vwonders
p36
g23
tp37
a(Vfor
p38
g23
tp39
a(Vmy
p40
g23
tp41
a(VJack
p42
g23
tp43
a(VRussell.
p44
g23
tp45
a(VShe
p46
g23
tp47
a(Vhas
p48
g23
tp49
a(Vawful
p50
g23
tp51
a(Vfood
p52
g23
tp53
a(Vallergy's
p54
g23
tp55
a(Vand
p56
g23
tp57
a(Vthis
p58
g23
tp59
a(Vfood
p60
g23
tp61
a(Vwas
p62
g23
tp63
a(Vour
p64
g23
tp65
a(Vlast
p66
g23
tp67
a(Vhope
p68
g23
tp69
a(Vbecause
p70
g23
tp71
a(Vit
p72
g23
tp73
a(Vwas
p74
g23
tp75
a(Vthe
p76
g23
tp77
a(Vlast
p78
g23
tp79
a(Vfood
p80
g23
tp81
a(Vwe
p82
g23
tp83
a(Vcould
p84
g23
tp85
a(Vfind
p86
g23
tp87
a(Vthat
p88
g23
tp89
a(Vdidn't
p90
g23
tp91
a(Vhave
p92
g23
tp93
a(VSOMETHING
p94
g23
tp95
a(Vin
p96
g23
tp97
a(Vit
p98
g23
tp99
a(Vthat
p100
g23
tp101
a(Vshe
p102
g23
tp103
a(Vwas
p104
g23
tp105
a(Vallergic
p106
g23
tp107
a(Vto.
p108
g23
tp109
a(VShe
p110
g23
tp111
a(Vhas
p112
g23
tp113
a(Vno
p114
g23
tp115
a(Vproblem
p116
g23
tp117
a(Veating
p118
g23
tp119
a(Vit
p120
g23
tp121
a(Vdry
p122
g23
tp123
a(Vbut
p124
g23
tp125
a(Vnormally
p126
g23
tp127
a(VI
p128
g23
tp129
a(Vmix
p130
g23
tp131
a(Vthe
p132
g23
tp133
a(VNatural
p134
g23
tp135
a(VBalance
p136
g23
tp137
a(VDry
p138
g23
tp139
a(VLamb
p140
g23
tp141
a(Vand
p142
g23
tp143
a(VBrown
p144
VPERSON
p145
tp146
a(VRice
p147
VPERSON
p148
tp149
a(Vwith
p150
g23
tp151
a(Vthe
p152
g23
tp153
a(VNatural
p154
g23
tp155
a(VBalance
p156
g23
tp157
a(VWet
p158
g23
tp159
a(VLamb
p160
g23
tp161
a(Vand
p162
g23
tp163
a(VBrown
p164
VPERSON
p165
tp166
a(VRice..
p167
g23
tp168
a(Vshe
p169
g23
tp170
a(Vseems
p171
g23
tp172
a(Vto
p173
g23
tp174
a(Vlike
p175
g23
tp176
a(Vthat
p177
g23
tp178
a(Vbetter.
p179
g23
tp180
a(VWe
p181
g23
tp182
a(Vstarted
p183
g23
tp184
a(Vfeeding
p185
g23
tp186
a(Vit
p187
g23
tp188
a(Vto
p189
g23
tp190
a(Vour
p191
g23
tp192
a(Vother
p193
g23
tp194
a(Vdog
p195
g23
tp196
a(V(a
p197
g23
tp198
a(VBichon)
p199
g23
tp200
a(Vtoo
p201
g23
tp202
a(Vand
p203
g23
tp204
a(Vshe
p205
g23
tp206
a(Vloves
p207
g23
tp208
a(Vit.
p209
g23
tp210
a(VIf
p211
g23
tp212
a(Vyour
p213
g23
tp214
a(Vdog
p215
g23
tp216
a(Vhas
p217
g23
tp218
a(Vallergy's
p219
g23
tp220
a(Vor
p221
g23
tp222
a(Vstomach
p223
g23
tp224
a(Vissue..
p225
g23
tp226
a(Vor
p227
g23
tp228
a(Vif
p229
g23
tp230
a(Vyou
p231
g23
tp232
a(Vwant
p233
g23
tp234
a(Vyour
p235
g23
tp236
a(Vdog
p237
g23
tp238
a(Vto
p239
g23
tp240
a(Veat
p241
g23
tp242
a(Vbetter
p243
g23
tp244
a(Vfood--
p245
g23
tp246
a(Vthis
p247
g23
tp248
a(Vis
p249
g23
tp250
a(Vit!
p251
g23
tp252
a(VYou
p253
g23
tp254
a(Vwill
p255
g23
tp256
a(Vsee
p257
g23
tp258
a(Va
p259
g23
tp260
a(Vdifference
p261
g23
tp262
a(Vin
p263
g23
tp264
a(Vyour
p265
g23
tp266
a(Vpet.
p267
g23
tp268
a.