(lp0
(VGot
p1
VO
p2
tp3
a(Va
p4
g2
tp5
a(Vfree
p6
g2
tp7
a(Vpackage
p8
g2
tp9
a(Vof
p10
g2
tp11
a(Vthese
p12
g2
tp13
a(Vwith
p14
g2
tp15
a(g4
g2
tp16
a(Vbottle
p17
g2
tp18
a(Vof
p19
g2
tp20
a(Vbloody
p21
g2
tp22
a(Vmary
p23
g2
tp24
a(Vmix
p25
g2
tp26
a(VI
p27
g2
tp28
a(Vbought
p29
g2
tp30
a(Vfrom
p31
g2
tp32
a(Vthe
p33
g2
tp34
a(Vseller,
p35
g2
tp36
a(Vand
p37
g2
tp38
a(Vthe
p39
g2
tp40
a(Vadvertising
p41
g2
tp42
a(Vworked..lol,
p43
g2
tp44
a(g27
g2
tp45
a(Vtried
p46
g2
tp47
a(Vthem,
p48
g2
tp49
a(Vand
p50
g2
tp51
a(Vshared
p52
g2
tp53
a(Vthem
p54
g2
tp55
a(Vwith
p56
g2
tp57
a(V2
p58
g2
tp59
a(Vbuddies,
p60
g2
tp61
a(Vand
p62
g2
tp63
a(Vwe
p64
g2
tp65
a(Vall
p66
g2
tp67
a(Vloved
p68
g2
tp69
a(Vthem...
p70
g2
tp71
a(VSo
p72
g2
tp73
a(Vim
p74
g2
tp75
a(Vhere
p76
g2
tp77
a(Vto
p78
g2
tp79
a(Vbuy
p80
g2
tp81
a(Vmore,
p82
g2
tp83
a(Vand
p84
g2
tp85
a(Vnoticed
p86
g2
tp87
a(Vthere
p88
g2
tp89
a(Vwere
p90
g2
tp91
a(Vno
p92
g2
tp93
a(Vreviews
p94
g2
tp95
a(Vyet,...
p96
g2
tp97
a(Vwell
p98
g2
tp99
a(Vnow
p100
g2
tp101
a(Vthere
p102
g2
tp103
a(Vis.
p104
g2
tp105
a(VThey
p106
g2
tp107
a(Vare
p108
g2
tp109
a(VHot,
p110
g2
tp111
a(Vbut
p112
g2
tp113
a(Vnot
p114
g2
tp115
a(V"burn
p116
g2
tp117
a(Vyour
p118
g2
tp119
a(Vmouth
p120
g2
tp121
a(Vforever
p122
g2
tp123
a(Vhot"
p124
g2
tp125
a(Vits
p126
g2
tp127
a(g4
g2
tp128
a(Vnice
p129
g2
tp130
a(Vtemp...
p131
g2
tp132
a(VPerfect
p133
g2
tp134
a(Vfor
p135
g2
tp136
a(Vus..
p137
g2
tp138
a.