(lp0
(VOne
p1
VO
p2
tp3
a(Vof
p4
g2
tp5
a(Vmy
p6
g2
tp7
a(Vboys
p8
g2
tp9
a(Vneeded
p10
g2
tp11
a(Vto
p12
g2
tp13
a(Vlose
p14
g2
tp15
a(Vsome
p16
g2
tp17
a(Vweight
p18
g2
tp19
a(Vand
p20
g2
tp21
a(Vthe
p22
g2
tp23
a(Vother
p24
g2
tp25
a(Vdidn't.
p26
g2
tp27
a(VI
p28
g2
tp29
a(Vput
p30
g2
tp31
a(Vthis
p32
g2
tp33
a(Vfood
p34
g2
tp35
a(Von
p36
g2
tp37
a(Vthe
p38
g2
tp39
a(Vfloor
p40
g2
tp41
a(Vfor
p42
g2
tp43
a(Vthe
p44
g2
tp45
a(Vchubby
p46
g2
tp47
a(Vguy,
p48
g2
tp49
a(Vand
p50
g2
tp51
a(Vthe
p52
g2
tp53
a(Vprotein-rich,
p54
g2
tp55
a(Vno
p56
g2
tp57
a(Vby-product
p58
g2
tp59
a(Vfood
p60
g2
tp61
a(Vup
p62
g2
tp63
a(Vhigher
p64
g2
tp65
a(Vwhere
p66
g2
tp67
a(Vonly
p68
g2
tp69
a(Vmy
p70
g2
tp71
a(Vskinny
p72
g2
tp73
a(Vboy
p74
g2
tp75
a(Vcan
p76
g2
tp77
a(Vjump.
p78
g2
tp79
a(VThe
p80
g2
tp81
a(Vhigher
p82
g2
tp83
a(Vfood
p84
g2
tp85
a(Vsits
p86
g2
tp87
a(Vgoing
p88
g2
tp89
a(Vstale.
p90
g2
tp91
a(VThey
p92
g2
tp93
a(Vboth
p94
g2
tp95
a(Vreally
p96
g2
tp97
a(Vgo
p98
g2
tp99
a(Vfor
p100
g2
tp101
a(Vthis
p102
g2
tp103
a(Vfood.
p104
g2
tp105
a(VAnd
p106
g2
tp107
a(Vmy
p108
g2
tp109
a(Vchubby
p110
g2
tp111
a(Vboy
p112
g2
tp113
a(Vhas
p114
g2
tp115
a(Vbeen
p116
g2
tp117
a(Vlosing
p118
g2
tp119
a(Vabout
p120
g2
tp121
a(Van
p122
g2
tp123
a(Vounce
p124
g2
tp125
a(Va
p126
g2
tp127
a(Vweek.
p128
g2
tp129
a.