(lp0
(VI
p1
VO
p2
tp3
a(Vcan
p4
g2
tp5
a(Vremember
p6
g2
tp7
a(Vbuying
p8
g2
tp9
a(Vthis
p10
g2
tp11
a(Vcandy
p12
g2
tp13
a(Vas
p14
g2
tp15
a(Va
p16
g2
tp17
a(Vkid
p18
g2
tp19
a(Vand
p20
g2
tp21
a(Vthe
p22
g2
tp23
a(Vquality
p24
g2
tp25
a(Vhasn't
p26
g2
tp27
a(Vdropped
p28
g2
tp29
a(Vin
p30
g2
tp31
a(Vall
p32
g2
tp33
a(Vthese
p34
g2
tp35
a(Vyears.
p36
g2
tp37
a(VStill
p38
g2
tp39
a(g16
g2
tp40
a(Vsuperb
p41
g2
tp42
a(Vproduct
p43
g2
tp44
a(Vyou
p45
g2
tp46
a(Vwon't
p47
g2
tp48
a(Vbe
p49
g2
tp50
a(Vdisappointed
p51
g2
tp52
a(Vwith.
p53
g2
tp54
a.