(lp0
(VThis
p1
VO
p2
tp3
a(Vis
p4
g2
tp5
a(Vthe
p6
g2
tp7
a(Vsame
p8
g2
tp9
a(Vstuff
p10
g2
tp11
a(Vyou
p12
g2
tp13
a(Vcan
p14
g2
tp15
a(Vbuy
p16
g2
tp17
a(Vat
p18
g2
tp19
a(Vthe
p20
g2
tp21
a(Vbig
p22
g2
tp23
a(Vbox
p24
g2
tp25
a(Vstores.
p26
g2
tp27
a(VThere
p28
g2
tp29
a(Vis
p30
g2
tp31
a(Vnothing
p32
g2
tp33
a(Vhealthy
p34
g2
tp35
a(Vabout
p36
g2
tp37
a(Vit.
p38
g2
tp39
a(VIt
p40
g2
tp41
a(Vis
p42
g2
tp43
a(Vjust
p44
g2
tp45
a(Vcarbs
p46
g2
tp47
a(Vand
p48
g2
tp49
a(Vsugars.
p50
g2
tp51
a(VSave
p52
g2
tp53
a(Vyour
p54
g2
tp55
a(Vmoney
p56
g2
tp57
a(Vand
p58
g2
tp59
a(Vget
p60
g2
tp61
a(Vsomething
p62
g2
tp63
a(Vthat
p64
g2
tp65
a(Vat
p66
g2
tp67
a(Vleast
p68
g2
tp69
a(Vhas
p70
g2
tp71
a(Vsome
p72
g2
tp73
a(Vtaste.
p74
g2
tp75
a.