(lp0
(VWe
p1
VO
p2
tp3
a(Vhave
p4
g2
tp5
a(Vthree
p6
g2
tp7
a(Vdogs
p8
g2
tp9
a(Vand
p10
g2
tp11
a(Vall
p12
g2
tp13
a(Vof
p14
g2
tp15
a(Vthem
p16
g2
tp17
a(Vlove
p18
g2
tp19
a(Vthis
p20
g2
tp21
a(Vfood!
p22
g2
tp23
a(VWe
p24
g2
tp25
a(Vbought
p26
g2
tp27
a(Vit
p28
g2
tp29
a(Vspecifically
p30
g2
tp31
a(Vfor
p32
g2
tp33
a(Vone
p34
g2
tp35
a(Vof
p36
g2
tp37
a(Vour
p38
g2
tp39
a(Vdogs
p40
g2
tp41
a(Vwho
p42
g2
tp43
a(Vhas
p44
g2
tp45
a(Vfood
p46
g2
tp47
a(Vallergies
p48
g2
tp49
a(Vand
p50
g2
tp51
a(Vit
p52
g2
tp53
a(Vworks
p54
g2
tp55
a(Vgreat
p56
g2
tp57
a(Vfor
p58
g2
tp59
a(Vhim,
p60
g2
tp61
a(Vno
p62
g2
tp63
a(Vmore
p64
g2
tp65
a(Vhot
p66
g2
tp67
a(Vspots
p68
g2
tp69
a(Vor
p70
g2
tp71
a(Vtummy
p72
g2
tp73
a(Vproblems.I
p74
g2
tp75
a(VLOVE
p76
g2
tp77
a(Vthat
p78
g2
tp79
a(Vit
p80
g2
tp81
a(Vships
p82
g2
tp83
a(Vright
p84
g2
tp85
a(Vto
p86
g2
tp87
a(Vour
p88
g2
tp89
a(Vdoor
p90
g2
tp91
a(Vwith
p92
g2
tp93
a(Vfree
p94
g2
tp95
a(Vshipping.
p96
g2
tp97
a.