(lp0
(VAwesome
p1
VO
p2
tp3
a(Vdog
p4
g2
tp5
a(Vfood.
p6
g2
tp7
a(VHowever,
p8
g2
tp9
a(Vwhen
p10
g2
tp11
a(Vgiven
p12
g2
tp13
a(Vto
p14
g2
tp15
a(Vmy
p16
g2
tp17
a(V"Boston",
p18
g2
tp19
a(Vwho
p20
g2
tp21
a(Vhas
p22
g2
tp23
a(Vsevere
p24
g2
tp25
a(Vreactions
p26
g2
tp27
a(Vto
p28
g2
tp29
a(Vsome
p30
g2
tp31
a(Vfood
p32
g2
tp33
a(Vingredients;
p34
g2
tp35
a(Vhis
p36
g2
tp37
a(Vitching
p38
g2
tp39
a(Vincreased
p40
g2
tp41
a(Vto
p42
g2
tp43
a(Vviolent
p44
g2
tp45
a(Vjumping
p46
g2
tp47
a(Vout
p48
g2
tp49
a(Vof
p50
g2
tp51
a(Vbed
p52
g2
tp53
a(Vat
p54
g2
tp55
a(Vnight,
p56
g2
tp57
a(Vscratching.
p58
g2
tp59
a(VAs
p60
g2
tp61
a(Vsoon
p62
g2
tp63
a(Vas
p64
g2
tp65
a(VI
p66
g2
tp67
a(Vchanged
p68
g2
tp69
a(Vto
p70
g2
tp71
a(Va
p72
g2
tp73
a(Vdifferent
p74
g2
tp75
a(Vformula,
p76
g2
tp77
a(Vthe
p78
g2
tp79
a(Vscratching
p80
g2
tp81
a(Vstopped.
p82
g2
tp83
a(VSo
p84
g2
tp85
a(Vglad
p86
g2
tp87
a(VNatural
p88
g2
tp89
a(VBalance
p90
g2
tp91
a(Vhas
p92
g2
tp93
a(Vother
p94
g2
tp95
a(Vchoices.
p96
g2
tp97
a(g66
g2
tp98
a(Vguess
p99
g2
tp100
a(Vyou
p101
g2
tp102
a(Vhave
p103
g2
tp104
a(Vto
p105
g2
tp106
a(Vtry
p107
g2
tp108
a(Veach,
p109
g2
tp110
a(Vuntil
p111
g2
tp112
a(Vyou
p113
g2
tp114
a(Vfind
p115
g2
tp116
a(Vwhat's
p117
g2
tp118
a(Vbest
p119
g2
tp120
a(Vfor
p121
g2
tp122
a(Vyour
p123
g2
tp124
a(Vpet.
p125
g2
tp126
a.