(lp0
(VI
p1
VO
p2
tp3
a(Vroast
p4
g2
tp5
a(Vat
p6
g2
tp7
a(Vhome
p8
g2
tp9
a(Vwith
p10
g2
tp11
a(Va
p12
g2
tp13
a(Vstove-top
p14
g2
tp15
a(Vpopcorn
p16
g2
tp17
a(Vpopper
p18
g2
tp19
a(V(but
p20
g2
tp21
a(g1
g2
tp22
a(Vdo
p23
g2
tp24
a(Vit
p25
g2
tp26
a(Voutside,
p27
g2
tp28
a(Vof
p29
g2
tp30
a(Vcourse).
p31
g2
tp32
a(VThese
p33
g2
tp34
a(Vbeans
p35
g2
tp36
a(V(Coffee
p37
g2
tp38
a(VBean
p39
g2
tp40
a(VDirect
p41
g2
tp42
a(VGreen
p43
g2
tp44
a(VMexican
p45
g2
tp46
a(VAltura)
p47
g2
tp48
a(Vseem
p49
g2
tp50
a(Vto
p51
g2
tp52
a(Vbe
p53
g2
tp54
a(Vwell-suited
p55
g2
tp56
a(Vfor
p57
g2
tp58
a(Vthis
p59
g2
tp60
a(Vmethod.
p61
g2
tp62
a(VThe
p63
g2
tp64
a(Vfirst
p65
g2
tp66
a(Vand
p67
g2
tp68
a(Vsecond
p69
g2
tp70
a(Vcracks
p71
g2
tp72
a(Vare
p73
g2
tp74
a(Vdistinct,
p75
g2
tp76
a(Vand
p77
g2
tp78
a(VI've
p79
g2
tp80
a(Vroasted
p81
g2
tp82
a(Vthe
p83
g2
tp84
a(Vbeans
p85
g2
tp86
a(Vfrom
p87
g2
tp88
a(Vmedium
p89
g2
tp90
a(Vto
p91
g2
tp92
a(Vslightly
p93
g2
tp94
a(Vdark
p95
g2
tp96
a(Vwith
p97
g2
tp98
a(Vgreat
p99
g2
tp100
a(Vresults
p101
g2
tp102
a(Vevery
p103
g2
tp104
a(Vtime.
p105
g2
tp106
a(VThe
p107
g2
tp108
a(Varoma
p109
g2
tp110
a(Vis
p111
g2
tp112
a(Vstrong
p113
g2
tp114
a(Vand
p115
g2
tp116
a(Vpersistent.
p117
g2
tp118
a(VThe
p119
g2
tp120
a(Vtaste
p121
g2
tp122
a(Vis
p123
g2
tp124
a(Vsmooth,
p125
g2
tp126
a(Vvelvety,
p127
g2
tp128
a(Vyet
p129
g2
tp130
a(Vlively.
p131
g2
tp132
a.