(lp0
(VI
p1
VO
p2
tp3
a(Vfed
p4
g2
tp5
a(Vthis
p6
g2
tp7
a(Vto
p8
g2
tp9
a(Vmy
p10
g2
tp11
a(VGolden
p12
g2
tp13
a(VRetriever
p14
g2
tp15
a(Vand
p16
g2
tp17
a(Vhe
p18
g2
tp19
a(Vhated
p20
g2
tp21
a(Vit.
p22
g2
tp23
a(VHe
p24
g2
tp25
a(Vwouldn't
p26
g2
tp27
a(Veat
p28
g2
tp29
a(Vit,
p30
g2
tp31
a(Vand
p32
g2
tp33
a(Vwhen
p34
g2
tp35
a(Vhe
p36
g2
tp37
a(Vdid,
p38
g2
tp39
a(Vit
p40
g2
tp41
a(Vgave
p42
g2
tp43
a(Vhim
p44
g2
tp45
a(Vterrible
p46
g2
tp47
a(Vdiarrhea.
p48
g2
tp49
a(VWe
p50
g2
tp51
a(Vwill
p52
g2
tp53
a(Vnot
p54
g2
tp55
a(Vbe
p56
g2
tp57
a(Vbuying
p58
g2
tp59
a(Vthis
p60
g2
tp61
a(Vagain.
p62
g2
tp63
a(VIt's
p64
g2
tp65
a(Valso
p66
g2
tp67
a(Vsuper
p68
g2
tp69
a(Vexpensive.
p70
g2
tp71
a.