(lp0
(VI
p1
VO
p2
tp3
a(Vhave
p4
g2
tp5
a(Va
p6
g2
tp7
a(Vstandard
p8
g2
tp9
a(Vpoodle
p10
g2
tp11
a(Vand
p12
g2
tp13
a(Vpomeranian
p14
g2
tp15
a(Vwho
p16
g2
tp17
a(Vboth
p18
g2
tp19
a(Vdo
p20
g2
tp21
a(Vwonderful
p22
g2
tp23
a(Von
p24
g2
tp25
a(Vthis
p26
g2
tp27
a(Vfood.
p28
g2
tp29
a(g1
g2
tp30
a(Vhave
p31
g2
tp32
a(Vswitched
p33
g2
tp34
a(Vthem
p35
g2
tp36
a(Vto
p37
g2
tp38
a(g6
g2
tp39
a(Vdifferent
p40
g2
tp41
a(Vfood
p42
g2
tp43
a(V(due
p44
g2
tp45
a(Vto
p46
g2
tp47
a(Vprice)
p48
g2
tp49
a(g6
g2
tp50
a(Vcouple
p51
g2
tp52
a(Vof
p53
g2
tp54
a(Vtimes
p55
g2
tp56
a(Vand
p57
g2
tp58
a(Vend
p59
g2
tp60
a(Vup
p61
g2
tp62
a(Vgoing
p63
g2
tp64
a(Vright
p65
g2
tp66
a(Vback
p67
g2
tp68
a(Vto
p69
g2
tp70
a(Vnatural
p71
g2
tp72
a(Vbalance.
p73
g2
tp74
a.