(lp0
(VDeal
p1
VO
p2
tp3
a(Vwas
p4
g2
tp5
a(Vawesome!
p6
g2
tp7
a(VArrived
p8
g2
tp9
a(Vbefore
p10
g2
tp11
a(VHalloween
p12
g2
tp13
a(Vas
p14
g2
tp15
a(Vindicated
p16
g2
tp17
a(Vand
p18
g2
tp19
a(Vwas
p20
g2
tp21
a(Venough
p22
g2
tp23
a(Vto
p24
g2
tp25
a(Vsatisfy
p26
g2
tp27
a(Vtrick
p28
g2
tp29
a(Vor
p30
g2
tp31
a(Vtreaters.
p32
g2
tp33
a(VI
p34
g2
tp35
a(Vlove
p36
g2
tp37
a(Vthe
p38
g2
tp39
a(Vquality
p40
g2
tp41
a(Vof
p42
g2
tp43
a(Vthis
p44
g2
tp45
a(Vproduct
p46
g2
tp47
a(Vand
p48
g2
tp49
a(Vit
p50
g2
tp51
a(Vwas
p52
g2
tp53
a(Vmuch
p54
g2
tp55
a(Vless
p56
g2
tp57
a(Vexpensive
p58
g2
tp59
a(Vthan
p60
g2
tp61
a(Vthe
p62
g2
tp63
a(Vlocal
p64
g2
tp65
a(Vstore's
p66
g2
tp67
a(Vcandy.
p68
g2
tp69
a.