(lp0
(VThis
p1
VO
p2
tp3
a(Vseems
p4
g2
tp5
a(Va
p6
g2
tp7
a(Vlittle
p8
g2
tp9
a(Vmore
p10
g2
tp11
a(Vwholesome
p12
g2
tp13
a(Vthan
p14
g2
tp15
a(Vsome
p16
g2
tp17
a(Vof
p18
g2
tp19
a(Vthe
p20
g2
tp21
a(Vsupermarket
p22
g2
tp23
a(Vbrands,
p24
g2
tp25
a(Vbut
p26
g2
tp27
a(Vit
p28
g2
tp29
a(Vis
p30
g2
tp31
a(Vsomewhat
p32
g2
tp33
a(Vmushy
p34
g2
tp35
a(Vand
p36
g2
tp37
a(Vdoesn't
p38
g2
tp39
a(Vhave
p40
g2
tp41
a(Vquite
p42
g2
tp43
a(Vas
p44
g2
tp45
a(Vmuch
p46
g2
tp47
a(Vflavor
p48
g2
tp49
a(Veither.
p50
g2
tp51
a(VIt
p52
g2
tp53
a(Vdidn't
p54
g2
tp55
a(Vpass
p56
g2
tp57
a(Vmuster
p58
g2
tp59
a(Vwith
p60
g2
tp61
a(Vmy
p62
g2
tp63
a(Vkids,
p64
g2
tp65
a(Vso
p66
g2
tp67
a(VI
p68
g2
tp69
a(Vprobably
p70
g2
tp71
a(Vwon't
p72
g2
tp73
a(Vbuy
p74
g2
tp75
a(Vit
p76
g2
tp77
a(Vagain.
p78
g2
tp79
a.