(lp0
(VI
p1
VO
p2
tp3
a(Vlove
p4
g2
tp5
a(Veating
p6
g2
tp7
a(Vthem
p8
g2
tp9
a(Vand
p10
g2
tp11
a(Vthey
p12
g2
tp13
a(Vare
p14
g2
tp15
a(Vgood
p16
g2
tp17
a(Vfor
p18
g2
tp19
a(Vwatching
p20
g2
tp21
a(VTV
p22
g2
tp23
a(Vand
p24
g2
tp25
a(Vlooking
p26
g2
tp27
a(Vat
p28
g2
tp29
a(Vmovies!
p30
g2
tp31
a(VIt
p32
g2
tp33
a(Vis
p34
g2
tp35
a(Vnot
p36
g2
tp37
a(Vtoo
p38
g2
tp39
a(Vsweet.
p40
g2
tp41
a(g1
g2
tp42
a(Vlike
p43
g2
tp44
a(Vto
p45
g2
tp46
a(Vtransfer
p47
g2
tp48
a(Vthem
p49
g2
tp50
a(Vto
p51
g2
tp52
a(Va
p53
g2
tp54
a(Vzip
p55
g2
tp56
a(Vlock
p57
g2
tp58
a(Vbaggie
p59
g2
tp60
a(Vso
p61
g2
tp62
a(Vthey
p63
g2
tp64
a(Vstay
p65
g2
tp66
a(Vfresh
p67
g2
tp68
a(Vso
p69
g2
tp70
a(g1
g2
tp71
a(Vcan
p72
g2
tp73
a(Vtake
p74
g2
tp75
a(Vmy
p76
g2
tp77
a(Vtime
p78
g2
tp79
a(Veating
p80
g2
tp81
a(Vthem.
p82
g2
tp83
a.