(lp0
(VI
p1
VPRP
p2
tp3
a(Vdon't
p4
VVBP
p5
tp6
a(Vknow
p7
VVB
p8
tp9
a(Vif
p10
VIN
p11
tp12
a(Vit's
p13
VNNS
p14
tp15
a(Vthe
p16
VDT
p17
tp18
a(Vcactus
p19
VNN
p20
tp21
a(Vor
p22
VCC
p23
tp24
a(Vthe
p25
VDT
p26
tp27
a(Vtequila
p28
VNN
p29
tp30
a(Vor
p31
VCC
p32
tp33
a(Vjust
p34
VRB
p35
tp36
a(Vthe
p37
VDT
p38
tp39
a(Vunique
p40
VJJ
p41
tp42
a(Vcombination
p43
VNN
p44
tp45
a(Vof
p46
VIN
p47
tp48
a(Vingredients,
p49
VNN
p50
tp51
a(Vbut
p52
VCC
p53
tp54
a(Vthe
p55
VDT
p56
tp57
a(Vflavour
p58
VNN
p59
tp60
a(Vof
p61
VIN
p62
tp63
a(Vthis
p64
VDT
p65
tp66
a(Vhot
p67
VJJ
p68
tp69
a(Vsauce
p70
VNN
p71
tp72
a(Vmakes
p73
VVBZ
p74
tp75
a(Vit
p76
VPRP
p77
tp78
a(Vone
p79
VCD
p80
tp81
a(Vof
p82
VIN
p83
tp84
a(Va
p85
VDT
p86
tp87
a(Vkind!
p88
VNN
p89
tp90
a(VWe
p91
VPRP
p92
tp93
a(Vpicked
p94
VVBD
p95
tp96
a(Vup
p97
VRP
p98
tp99
a(g85
VDT
p100
tp101
a(Vbottle
p102
VNN
p103
tp104
a(Vonce
p105
VRB
p106
tp107
a(Von
p108
VIN
p109
tp110
a(g85
VDT
p111
tp112
a(Vtrip
p113
VNN
p114
tp115
a(Vwe
p116
VPRP
p117
tp118
a(Vwere
p119
VVBD
p120
tp121
a(Von
p122
VIN
p123
tp124
a(Vand
p125
VCC
p126
tp127
a(Vbrought
p128
VVBD
p129
tp130
a(Vit
p131
VPRP
p132
tp133
a(Vback
p134
VRB
p135
tp136
a(Vhome
p137
VNN
p138
tp139
a(Vwith
p140
VIN
p141
tp142
a(Vus
p143
VPRP
p144
tp145
a(Vand
p146
VCC
p147
tp148
a(Vwere
p149
VVBD
p150
tp151
a(Vtotally
p152
VRB
p153
tp154
a(Vblown
p155
VVBN
p156
tp157
a(Vaway!
p158
VNN
p159
tp160
a(VWhen
p161
VWRB
p162
tp163
a(Vwe
p164
VPRP
p165
tp166
a(Vrealized
p167
VVBD
p168
tp169
a(Vthat
p170
VIN
p171
tp172
a(Vwe
p173
VPRP
p174
tp175
a(Vsimply
p176
VRB
p177
tp178
a(Vcouldn't
p179
VNN
p180
tp181
a(Vfind
p182
VVBP
p183
tp184
a(Vit
p185
VPRP
p186
tp187
a(Vanywhere
p188
VRB
p189
tp190
a(Vin
p191
VIN
p192
tp193
a(Vour
p194
VPRP$
p195
tp196
a(Vcity
p197
VNN
p198
tp199
a(Vwe
p200
VPRP
p201
tp202
a(Vwere
p203
VVBD
p204
tp205
a(Vbummed.Now,
p206
VNN
p207
tp208
a(Vbecause
p209
VIN
p210
tp211
a(Vof
p212
VIN
p213
tp214
a(Vthe
p215
VDT
p216
tp217
a(Vmagic
p218
VNN
p219
tp220
a(Vof
p221
VIN
p222
tp223
a(Vthe
p224
VDT
p225
tp226
a(Vinternet,
p227
VNN
p228
tp229
a(Vwe
p230
VPRP
p231
tp232
a(Vhave
p233
VVBP
p234
tp235
a(g85
VDT
p236
tp237
a(Vcase
p238
VNN
p239
tp240
a(Vof
p241
VIN
p242
tp243
a(Vthe
p244
VDT
p245
tp246
a(Vsauce
p247
VNN
p248
tp249
a(Vand
p250
VCC
p251
tp252
a(Vare
p253
VVBP
p254
tp255
a(Vecstatic
p256
VJJ
p257
tp258
a(Vbecause
p259
VIN
p260
tp261
a(Vof
p262
VIN
p263
tp264
a(Vit.If
p265
VNN
p266
tp267
a(Vyou
p268
VPRP
p269
tp270
a(Vlove
p271
VVBP
p272
tp273
a(Vhot
p274
VJJ
p275
tp276
a(Vsauce..I
p277
VNN
p278
tp279
a(Vmean
p280
VNN
p281
tp282
a(Vreally
p283
VRB
p284
tp285
a(Vlove
p286
VVBP
p287
tp288
a(Vhot
p289
VJJ
p290
tp291
a(Vsauce,
p292
VNN
p293
tp294
a(Vbut
p295
VCC
p296
tp297
a(Vdon't
p298
VNN
p299
tp300
a(Vwant
p301
VVBP
p302
tp303
a(g85
VDT
p304
tp305
a(Vsauce
p306
VNN
p307
tp308
a(Vthat
p309
VWDT
p310
tp311
a(Vtastelessly
p312
VRB
p313
tp314
a(Vburns
p315
VVBZ
p316
tp317
a(Vyour
p318
VPRP$
p319
tp320
a(Vthroat,
p321
VNN
p322
tp323
a(Vgrab
p324
VVB
p325
tp326
a(g85
VDT
p327
tp328
a(Vbottle
p329
VNN
p330
tp331
a(Vof
p332
VIN
p333
tp334
a(VTequila
p335
VNNP
p336
tp337
a(VPicante
p338
VNNP
p339
tp340
a(VGourmet
p341
VNNP
p342
tp343
a(Vde
p344
VFW
p345
tp346
a(VInclan.
p347
VFW
p348
tp349
a(VJust
p350
VRB
p351
tp352
a(Vrealize
p353
VVBP
p354
tp355
a(Vthat
p356
VIN
p357
tp358
a(Vonce
p359
VRB
p360
tp361
a(Vyou
p362
VPRP
p363
tp364
a(Vtaste
p365
VVBP
p366
tp367
a(Vit,
p368
VNNP
p369
tp370
a(Vyou
p371
VPRP
p372
tp373
a(Vwill
p374
VMD
p375
tp376
a(Vnever
p377
VRB
p378
tp379
a(Vwant
p380
VVB
p381
tp382
a(Vto
p383
VTO
p384
tp385
a(Vuse
p386
VVB
p387
tp388
a(Vany
p389
VDT
p390
tp391
a(Vother
p392
VJJ
p393
tp394
a(Vsauce.Thank
p395
VNN
p396
tp397
a(Vyou
p398
VPRP
p399
tp400
a(Vfor
p401
VIN
p402
tp403
a(Vthe
p404
VDT
p405
tp406
a(Vpersonal,
p407
VNN
p408
tp409
a(Vincredible
p410
VJJ
p411
tp412
a(Vservice!
p413
VNN
p414
tp415
a.