(lp0
(VThis
p1
VDT
p2
tp3
a(Vis
p4
VVBZ
p5
tp6
a(Vthe
p7
VDT
p8
tp9
a(Vsame
p10
VJJ
p11
tp12
a(Vfood
p13
VNN
p14
tp15
a(Vwe
p16
VPRP
p17
tp18
a(Vget
p19
VVBP
p20
tp21
a(Vat
p22
VIN
p23
tp24
a(Vpet
p25
VJJ
p26
tp27
a(Vstore.
p28
VNN
p29
tp30
a(VBut
p31
VCC
p32
tp33
a(Vit's
p34
VNNS
p35
tp36
a(Vdelivered
p37
VVBN
p38
tp39
a(Vto
p40
VTO
p41
tp42
a(Vmy
p43
VPRP$
p44
tp45
a(Vdoor!
p46
VNN
p47
tp48
a(VAnd
p49
VCC
p50
tp51
a(Vfor
p52
VIN
p53
tp54
a(Vthe
p55
VDT
p56
tp57
a(Vsame
p58
VJJ
p59
tp60
a(Vprice
p61
VNN
p62
tp63
a(Vor
p64
VCC
p65
tp66
a(Vslightly
p67
VRB
p68
tp69
a(Vless.
p70
VNN
p71
tp72
a.