(lp0
(VI
p1
VPRP
p2
tp3
a(Vreally
p4
VRB
p5
tp6
a(Vlike
p7
VIN
p8
tp9
a(Vthe
p10
VDT
p11
tp12
a(VMaple
p13
VNNP
p14
tp15
a(Vand
p16
VCC
p17
tp18
a(VBrown
p19
VNNP
p20
tp21
a(VSugar
p22
VNNP
p23
tp24
a(Vflavor.
p25
VNNP
p26
tp27
a(VThe
p28
VNNP
p29
tp30
a(Vregular
p31
VNN
p32
tp33
a(Vis
p34
VVBZ
p35
tp36
a(Vfine
p37
VJJ
p38
tp39
a(Vwith
p40
VIN
p41
tp42
a(Vbrown
p43
VJJ
p44
tp45
a(Vsugar
p46
VNN
p47
tp48
a(Vadded.
p49
VNNP
p50
tp51
a(VThe
p52
VNNP
p53
tp54
a(VApples
p55
VNNPS
p56
tp57
a(Vand
p58
VCC
p59
tp60
a(VCinnamon
p61
VNNP
p62
tp63
a(Vflavor
p64
VNN
p65
tp66
a(Vis
p67
VVBZ
p68
tp69
a(VOK.
p70
VNNP
p71
tp72
a(VThis
p73
VNNP
p74
tp75
a(Vis
p76
VVBZ
p77
tp78
a(Va
p79
VDT
p80
tp81
a(Vvery
p82
VRB
p83
tp84
a(Vquick,
p85
VJJ
p86
tp87
a(Veasy
p88
VJJ
p89
tp90
a(Vand
p91
VCC
p92
tp93
a(Vsatisfying
p94
VJJ
p95
tp96
a(Vbreakfast
p97
VNN
p98
tp99
a(Vand
p100
VCC
p101
tp102
a(VI'll
p103
VNN
p104
tp105
a(Vorder
p106
VNN
p107
tp108
a(Vthis
p109
VDT
p110
tp111
a(Vbrand
p112
VNN
p113
tp114
a(Vagain,
p115
VNN
p116
tp117
a(Vbut
p118
VCC
p119
tp120
a(Vnot
p121
VRB
p122
tp123
a(Vthe
p124
VDT
p125
tp126
a(Vvariety.
p127
VFW
p128
tp129
a(VI'll
p130
VFW
p131
tp132
a(Vget
p133
VVB
p134
tp135
a(Vall
p136
VDT
p137
tp138
a(VMaple
p139
VNNP
p140
tp141
a(Vand
p142
VCC
p143
tp144
a(VBrown
p145
VNNP
p146
tp147
a(VSugar.
p148
VNNP
p149
tp150
a.