(lp0
(VThis
p1
VDT
p2
tp3
a(Vis
p4
VVBZ
p5
tp6
a(Va
p7
VDT
p8
tp9
a(Vconfection
p10
VNN
p11
tp12
a(Vthat
p13
VWDT
p14
tp15
a(Vhas
p16
VVBZ
p17
tp18
a(Vbeen
p19
VVBN
p20
tp21
a(Varound
p22
VIN
p23
tp24
a(g7
VDT
p25
tp26
a(Vfew
p27
VJJ
p28
tp29
a(Vcenturies.
p30
VNN
p31
tp32
a(VIt
p33
VPRP
p34
tp35
a(Vis
p36
VVBZ
p37
tp38
a(g7
VDT
p39
tp40
a(Vlight,
p41
VFW
p42
tp43
a(Vpillowy
p44
VFW
p45
tp46
a(Vcitrus
p47
VNN
p48
tp49
a(Vgelatin
p50
VNN
p51
tp52
a(Vwith
p53
VIN
p54
tp55
a(Vnuts
p56
VNNS
p57
tp58
a(V-
p59
V:
p60
tp61
a(Vin
p62
VIN
p63
tp64
a(Vthis
p65
VDT
p66
tp67
a(Vcase
p68
VNN
p69
tp70
a(VFilberts.
p71
VNNP
p72
tp73
a(VAnd
p74
VCC
p75
tp76
a(Vit
p77
VPRP
p78
tp79
a(Vis
p80
VVBZ
p81
tp82
a(Vcut
p83
VVBN
p84
tp85
a(Vinto
p86
VIN
p87
tp88
a(Vtiny
p89
VJJ
p90
tp91
a(Vsquares
p92
VNNS
p93
tp94
a(Vand
p95
VCC
p96
tp97
a(Vthen
p98
VRB
p99
tp100
a(Vliberally
p101
VRB
p102
tp103
a(Vcoated
p104
VVBN
p105
tp106
a(Vwith
p107
VIN
p108
tp109
a(Vpowdered
p110
VJJ
p111
tp112
a(Vsugar.
p113
VNN
p114
tp115
a(VAnd
p116
VCC
p117
tp118
a(Vit
p119
VPRP
p120
tp121
a(Vis
p122
VVBZ
p123
tp124
a(g7
VDT
p125
tp126
a(Vtiny
p127
VJJ
p128
tp129
a(Vmouthful
p130
VNN
p131
tp132
a(Vof
p133
VIN
p134
tp135
a(Vheaven.
p136
VNN
p137
tp138
a(VNot
p139
VRB
p140
tp141
a(Vtoo
p142
VRB
p143
tp144
a(Vchewy,
p145
VJJ
p146
tp147
a(Vand
p148
VCC
p149
tp150
a(Vvery
p151
VJJ
p152
tp153
a(Vflavorful.
p154
VNN
p155
tp156
a(VI
p157
VPRP
p158
tp159
a(Vhighly
p160
VRB
p161
tp162
a(Vrecommend
p163
VVBP
p164
tp165
a(Vthis
p166
VDT
p167
tp168
a(Vyummy
p169
VJJ
p170
tp171
a(Vtreat.
p172
VNN
p173
tp174
a(VIf
p175
VIN
p176
tp177
a(Vyou
p178
VPRP
p179
tp180
a(Vare
p181
VVBP
p182
tp183
a(Vfamiliar
p184
VJJ
p185
tp186
a(Vwith
p187
VIN
p188
tp189
a(Vthe
p190
VDT
p191
tp192
a(Vstory
p193
VNN
p194
tp195
a(Vof
p196
VIN
p197
tp198
a(VC.S.
p199
VNNP
p200
tp201
a(VLewis'
p202
VNNP
p203
tp204
a(V"The
p205
VNNP
p206
tp207
a(VLion,
p208
VNNP
p209
tp210
a(VThe
p211
VNNP
p212
tp213
a(VWitch,
p214
VNNP
p215
tp216
a(Vand
p217
VCC
p218
tp219
a(VThe
p220
VDT
p221
tp222
a(VWardrobe"
p223
VNN
p224
tp225
a(g59
g60
tp226
a(Vthis
p227
VDT
p228
tp229
a(Vis
p230
VVBZ
p231
tp232
a(Vthe
p233
VDT
p234
tp235
a(Vtreat
p236
VNN
p237
tp238
a(Vthat
p239
VWDT
p240
tp241
a(Vseduces
p242
VVBZ
p243
tp244
a(VEdmund
p245
VNNP
p246
tp247
a(Vinto
p248
VIN
p249
tp250
a(Vselling
p251
VVBG
p252
tp253
a(Vout
p254
VRP
p255
tp256
a(Vhis
p257
VPRP$
p258
tp259
a(VBrother
p260
VNNP
p261
tp262
a(Vand
p263
VCC
p264
tp265
a(VSisters
p266
VNNS
p267
tp268
a(Vto
p269
VTO
p270
tp271
a(Vthe
p272
VDT
p273
tp274
a(VWitch.
p275
VNN
p276
tp277
a.