(lp0
(Vwe're
p1
VNN
p2
tp3
a(Vused
p4
VVBD
p5
tp6
a(Vto
p7
VTO
p8
tp9
a(Vspicy
p10
VVB
p11
tp12
a(Vfoods
p13
VNNS
p14
tp15
a(Vdown
p16
VRB
p17
tp18
a(Vhere
p19
VRB
p20
tp21
a(Vin
p22
VIN
p23
tp24
a(Vsouth
p25
VJJ
p26
tp27
a(Vtexas
p28
VNNS
p29
tp30
a(Vand
p31
VCC
p32
tp33
a(Vthese
p34
VDT
p35
tp36
a(Vare
p37
VVBP
p38
tp39
a(Vnot
p40
VRB
p41
tp42
a(Vat
p43
VIN
p44
tp45
a(Vall
p46
VDT
p47
tp48
a(Vspicy.
p49
VJJ
p50
tp51
a(Vdoubt
p52
VNN
p53
tp54
a(Vvery
p55
VRB
p56
tp57
a(Vmuch
p58
VJJ
p59
tp60
a(Vhabanero
p61
VNN
p62
tp63
a(Vis
p64
VVBZ
p65
tp66
a(Vused
p67
VVBN
p68
tp69
a(Vat
p70
VIN
p71
tp72
a(Vall.
p73
VNN
p74
tp75
a(Vcould
p76
VMD
p77
tp78
a(Vtake
p79
VVB
p80
tp81
a(Vit
p82
VPRP
p83
tp84
a(Vup
p85
VRP
p86
tp87
a(Va
p88
VDT
p89
tp90
a(Vnotch
p91
VNN
p92
tp93
a(Vor
p94
VCC
p95
tp96
a(Vtwo.
p97
VNN
p98
tp99
a.