(lp0
(VMcCann's
p1
VNN
p2
tp3
a(Vmakes
p4
VVBZ
p5
tp6
a(Voatmeal
p7
VNN
p8
tp9
a(Vfor
p10
VIN
p11
tp12
a(Vevery
p13
VDT
p14
tp15
a(Voatmeal
p16
VNN
p17
tp18
a(Vconnoisseur,
p19
VNN
p20
tp21
a(Vwhether
p22
VIN
p23
tp24
a(Vone
p25
VNN
p26
tp27
a(Vlikes
p28
VVBZ
p29
tp30
a(Vit
p31
VPRP
p32
tp33
a(Vfrom
p34
VIN
p35
tp36
a(Vthe
p37
VDT
p38
tp39
a(Vraw
p40
VJJ
p41
tp42
a(Vpellet
p43
VJJ
p44
tp45
a(Vstate
p46
VNN
p47
tp48
a(Vthat
p49
VIN
p50
tp51
a(Vcooks
p52
VNNS
p53
tp54
a(Vfor
p55
VIN
p56
tp57
a(Vhalf
p58
VPDT
p59
tp60
a(Van
p61
VDT
p62
tp63
a(Vhour,
p64
VNN
p65
tp66
a(Vto
p67
VTO
p68
tp69
a(Vthe
p70
VDT
p71
tp72
a(Vsloth
p73
VNN
p74
tp75
a(Vaddled
p76
VJJ
p77
tp78
a(Vinstant,
p79
VNN
p80
tp81
a(Vwhich
p82
VWDT
p83
tp84
a(Vcan
p85
VMD
p86
tp87
a(Vbe
p88
VVB
p89
tp90
a(Vdone
p91
VVBN
p92
tp93
a(Vin
p94
VIN
p95
tp96
a(Vthe
p97
VDT
p98
tp99
a(Vmicrowave
p100
VNN
p101
tp102
a(Vfor
p103
VIN
p104
tp105
a(Vunder
p106
VIN
p107
tp108
a(Vthree
p109
VCD
p110
tp111
a(Vminutes.
p112
VFW
p113
tp114
a(VIt's
p115
VFW
p116
tp117
a(Vall
p118
VDT
p119
tp120
a(Vgood,
p121
VFW
p122
tp123
a(Vthat's
p124
VFW
p125
tp126
a(Vfor
p127
VIN
p128
tp129
a(Vsure,
p130
VNN
p131
tp132
a(Vand
p133
VCC
p134
tp135
a(Vthe
p136
VDT
p137
tp138
a(Vbeauty
p139
VNN
p140
tp141
a(Vof
p142
VIN
p143
tp144
a(Vthe
p145
VDT
p146
tp147
a(Vinstant
p148
VJJ
p149
tp150
a(Vvariety
p151
VNN
p152
tp153
a(Vis
p154
VVBZ
p155
tp156
a(Vthat
p157
VIN
p158
tp159
a(Vit
p160
VPRP
p161
tp162
a(Vis
p163
VVBZ
p164
tp165
a(Vavailable
p166
VJJ
p167
tp168
a(Vin
p169
VIN
p170
tp171
a(Vdifferent
p172
VJJ
p173
tp174
a(Vflavors
p175
VNNS
p176
tp177
a(Vas
p178
VRB
p179
tp180
a(Vwell
p181
VRB
p182
tp183
a(Vas
p184
VIN
p185
tp186
a(Vregular.
p187
VNN
p188
tp189
a(VThis
p190
VDT
p191
tp192
a(Vvariety
p193
VNN
p194
tp195
a(Vpack
p196
VNN
p197
tp198
a(Vallows
p199
VVBZ
p200
tp201
a(Vdifferent
p202
VJJ
p203
tp204
a(Vtastes
p205
VNNS
p206
tp207
a(Vto
p208
VTO
p209
tp210
a(Vbe
p211
VVB
p212
tp213
a(Vexplored,
p214
VNN
p215
tp216
a(Vas
p217
VRB
p218
tp219
a(Vwell
p220
VRB
p221
tp222
a(Vas
p223
VIN
p224
tp225
a(Vgiving
p226
VVBG
p227
tp228
a(Vyou
p229
VPRP
p230
tp231
a(Va
p232
VDT
p233
tp234
a(Vchance
p235
VNN
p236
tp237
a(Vto
p238
VTO
p239
tp240
a(Vexperience
p241
VVB
p242
tp243
a(Vthe
p244
VDT
p245
tp246
a(Vdifference
p247
VNN
p248
tp249
a(Vbetween
p250
VIN
p251
tp252
a(VMcCann's
p253
VNNS
p254
tp255
a(Vand
p256
VCC
p257
tp258
a(Vother
p259
VJJ
p260
tp261
a(Vwell-known
p262
VJJ
p263
tp264
a(Voatmeals.
p265
VNN
p266
tp267
a(VWhat
p268
VWP
p269
tp270
a(VI
p271
VPRP
p272
tp273
a(Vpersonally
p274
VRB
p275
tp276
a(Vlike
p277
VVBP
p278
tp279
a(Vabout
p280
VIN
p281
tp282
a(VMcCann's
p283
VNN
p284
tp285
a(Vis
p286
VVBZ
p287
tp288
a(Vthat
p289
VIN
p290
tp291
a(Vit
p292
VPRP
p293
tp294
a(Vcooks
p295
VNNS
p296
tp297
a(Vup
p298
VRB
p299
tp300
a(Vthicker
p301
VJJR
p302
tp303
a(Vand
p304
VCC
p305
tp306
a(Vwith
p307
VIN
p308
tp309
a(Vmore
p310
VJJR
p311
tp312
a(Vbody
p313
VNN
p314
tp315
a(Vthan
p316
VIN
p317
tp318
a(Vthe
p319
VDT
p320
tp321
a(Vtop
p322
VJJ
p323
tp324
a(Vbrand
p325
VNN
p326
tp327
a(Vhere
p328
VRB
p329
tp330
a(Vin
p331
VIN
p332
tp333
a(VAmerica.
p334
VNNP
p335
tp336
a(VThe
p337
VNNP
p338
tp339
a(VApples
p340
VNNPS
p341
tp342
a(V&
p343
VCC
p344
tp345
a(VCinnamon,
p346
VFW
p347
tp348
a(Vthough,
p349
VFW
p350
tp351
a(Vtends
p352
VVBZ
p353
tp354
a(Vto
p355
VTO
p356
tp357
a(Vbe
p358
VVB
p359
tp360
a(g232
VDT
p361
tp362
a(Vlittle
p363
VJJ
p364
tp365
a(Vliquidy
p366
VNN
p367
tp368
a(Vso
p369
VIN
p370
tp371
a(Vyou
p372
VPRP
p373
tp374
a(Vmay
p375
VMD
p376
tp377
a(Vwant
p378
VVB
p379
tp380
a(Vto
p381
VTO
p382
tp383
a(Vexperiment
p384
VNN
p385
tp386
a(Vwith
p387
VIN
p388
tp389
a(Vthe
p390
VDT
p391
tp392
a(Vamount
p393
VNN
p394
tp395
a(Vof
p396
VIN
p397
tp398
a(Vwater
p399
VNN
p400
tp401
a(Vyou
p402
VPRP
p403
tp404
a(Vadd.
p405
VVBP
p406
tp407
a(VIn
p408
VIN
p409
tp410
a(Vmy
p411
VPRP$
p412
tp413
a(V1300watt
p414
VNN
p415
tp416
a(Vmicrowave
p417
VNN
p418
tp419
a(Vthe
p420
VDT
p421
tp422
a(Voatmeal
p423
VNN
p424
tp425
a(Vcooks
p426
VNNS
p427
tp428
a(Vup
p429
VRB
p430
tp431
a(Vin
p432
VIN
p433
tp434
a(Vabout
p435
VRB
p436
tp437
a(Vone
p438
VCD
p439
tp440
a(Vminute
p441
VJJ
p442
tp443
a(Vand
p444
VCC
p445
tp446
a(Vtwenty-seven
p447
VJJ
p448
tp449
a(Vseconds,
p450
VNN
p451
tp452
a(Vso
p453
VIN
p454
tp455
a(Vyou
p456
VPRP
p457
tp458
a(Vshould
p459
VMD
p460
tp461
a(Valso
p462
VRB
p463
tp464
a(Vwatch
p465
VVB
p466
tp467
a(Vthat
p468
VDT
p469
tp470
a(Vto
p471
VTO
p472
tp473
a(Vget
p474
VVB
p475
tp476
a(g232
VDT
p477
tp478
a(Vhandle
p479
VVB
p480
tp481
a(Von
p482
VIN
p483
tp484
a(Vhow
p485
VWRB
p486
tp487
a(Vmuch
p488
VJJ
p489
tp490
a(Vtime
p491
VNN
p492
tp493
a(Vand
p494
VCC
p495
tp496
a(Vwater
p497
VNN
p498
tp499
a(Vto
p500
VTO
p501
tp502
a(Vuse.
p503
VVB
p504
tp505
a(VThe
p506
VDT
p507
tp508
a(Vonly
p509
VJJ
p510
tp511
a(Vbad
p512
VJJ
p513
tp514
a(Vthing
p515
VNN
p516
tp517
a(V--
p518
V:
p519
tp520
a(Vif
p521
VIN
p522
tp523
a(Vyou
p524
VPRP
p525
tp526
a(Vcan
p527
VMD
p528
tp529
a(Vconsider
p530
VVB
p531
tp532
a(Vit
p533
VPRP
p534
tp535
a(g232
VDT
p536
tp537
a(Vbad
p538
VJJ
p539
tp540
a(Vthing
p541
VNN
p542
tp543
a(V--
p544
g519
tp545
a(Vabout
p546
VIN
p547
tp548
a(Vthis
p549
VDT
p550
tp551
a(Voffering
p552
VNN
p553
tp554
a(Vis
p555
VVBZ
p556
tp557
a(Vthat
p558
VIN
p559
tp560
a(Vyou
p561
VPRP
p562
tp563
a(Vhave
p564
VVBP
p565
tp566
a(Vto
p567
VTO
p568
tp569
a(Vbuy
p570
VVB
p571
tp572
a(Vin
p573
VIN
p574
tp575
a(Vlot
p576
VNN
p577
tp578
a(Vso
p579
VRB
p580
tp581
a(Vyou'll
p582
VRB
p583
tp584
a(Vend
p585
VVB
p586
tp587
a(Vup
p588
VRP
p589
tp590
a(Vwith
p591
VIN
p592
tp593
a(Vsix
p594
VCD
p595
tp596
a(Vten-count
p597
VJJ
p598
tp599
a(Vboxes.
p600
VNN
p601
tp602
a(VThis
p603
VDT
p604
tp605
a(Vis
p606
VVBZ
p607
tp608
a(Vgood
p609
VJJ
p610
tp611
a(Vif
p612
VIN
p613
tp614
a(Vyou
p615
VPRP
p616
tp617
a(Vhave
p618
VVBP
p619
tp620
a(g232
VDT
p621
tp622
a(Vwhole
p623
VJJ
p624
tp625
a(Vfamily
p626
VNN
p627
tp628
a(Vof
p629
VIN
p630
tp631
a(Voatmeal-eaters,
p632
VNN
p633
tp634
a(Vbut
p635
VCC
p636
tp637
a(Vif
p638
VIN
p639
tp640
a(Vyou're
p641
VNN
p642
tp643
a(g232
VDT
p644
tp645
a(Vsingle
p646
VJJ
p647
tp648
a(Vperson
p649
VNN
p650
tp651
a(Valone
p652
VRB
p653
tp654
a(V--
p655
g519
tp656
a(Vwell,
p657
VJJ
p658
tp659
a(Vlove
p660
VNN
p661
tp662
a(Voatmeal.
p663
VNN
p664
tp665
a.