(lp0
(VI've
p1
VNN
p2
tp3
a(Vbeen
p4
VVBN
p5
tp6
a(Vvery
p7
VRB
p8
tp9
a(Vpleased
p10
VJJ
p11
tp12
a(Vwith
p13
VIN
p14
tp15
a(Vthe
p16
VDT
p17
tp18
a(VNatural
p19
VNNP
p20
tp21
a(VBalance
p22
VNNP
p23
tp24
a(Vdog
p25
VNN
p26
tp27
a(Vfood.
p28
VNNP
p29
tp30
a(VOur
p31
VNNP
p32
tp33
a(Vdogs
p34
VNNS
p35
tp36
a(Vhave
p37
VVBP
p38
tp39
a(Vhad
p40
VVBN
p41
tp42
a(Vissues
p43
VNNS
p44
tp45
a(Vwith
p46
VIN
p47
tp48
a(Vother
p49
VJJ
p50
tp51
a(Vdog
p52
VNN
p53
tp54
a(Vfoods
p55
VNNS
p56
tp57
a(Vin
p58
VIN
p59
tp60
a(Vthe
p61
VDT
p62
tp63
a(Vpast
p64
VNN
p65
tp66
a(Vand
p67
VCC
p68
tp69
a(VI
p70
VPRP
p71
tp72
a(Vhad
p73
VVBD
p74
tp75
a(Vsomeone
p76
VNN
p77
tp78
a(Vrecommend
p79
VVB
p80
tp81
a(VNatural
p82
VNNP
p83
tp84
a(VBalance
p85
VNNP
p86
tp87
a(Vgrain
p88
VNN
p89
tp90
a(Vfree
p91
VJJ
p92
tp93
a(Vsince
p94
VIN
p95
tp96
a(Vit
p97
VPRP
p98
tp99
a(Vis
p100
VVBZ
p101
tp102
a(Vpossible
p103
VJJ
p104
tp105
a(Vthey
p106
VPRP
p107
tp108
a(Vwere
p109
VVBD
p110
tp111
a(Vallergic
p112
VJJ
p113
tp114
a(Vto
p115
VTO
p116
tp117
a(Vgrains.
p118
VNN
p119
tp120
a(VSince
p121
VIN
p122
tp123
a(Vswitching
p124
VNN
p125
tp126
a(g70
VCD
p127
tp128
a(Vhaven't
p129
VNN
p130
tp131
a(Vhad
p132
VVBD
p133
tp134
a(Vany
p135
VDT
p136
tp137
a(Vissues.
p138
VNN
p139
tp140
a(VIt
p141
VPRP
p142
tp143
a(Vis
p144
VVBZ
p145
tp146
a(Valso
p147
VRB
p148
tp149
a(Vhelpful
p150
VJJ
p151
tp152
a(Vthat
p153
VWDT
p154
tp155
a(Vhave
p156
VVBP
p157
tp158
a(Vhave
p159
VVBP
p160
tp161
a(Vdifferent
p162
VJJ
p163
tp164
a(Vkibble
p165
VNN
p166
tp167
a(Vsize
p168
VNN
p169
tp170
a(Vfor
p171
VIN
p172
tp173
a(Vlarger/smaller
p174
VNN
p175
tp176
a(Vsized
p177
VVBD
p178
tp179
a(Vdogs.
p180
VNN
p181
tp182
a.