(lp0
(VThis
p1
VDT
p2
tp3
a(Voffer
p4
VNN
p5
tp6
a(Vis
p7
VVBZ
p8
tp9
a(Va
p10
VDT
p11
tp12
a(Vgreat
p13
VJJ
p14
tp15
a(Vprice
p16
VNN
p17
tp18
a(Vand
p19
VCC
p20
tp21
a(g10
VDT
p22
tp23
a(Vgreat
p24
VJJ
p25
tp26
a(Vtaste,
p27
VNN
p28
tp29
a(Vthanks
p30
VNNS
p31
tp32
a(VAmazon
p33
VNNP
p34
tp35
a(Vfor
p36
VIN
p37
tp38
a(Vselling
p39
VVBG
p40
tp41
a(Vthis
p42
VDT
p43
tp44
a(Vproduct.Staral
p45
VNN
p46
tp47
a.