(lp0
(VBuyer
p1
VNNP
p2
tp3
a(VBeware
p4
VVB
p5
tp6
a(VPlease!
p7
VNN
p8
tp9
a(VThis
p10
VDT
p11
tp12
a(Vsweetener
p13
VNN
p14
tp15
a(Vis
p16
VVBZ
p17
tp18
a(Vnot
p19
VRB
p20
tp21
a(Vfor
p22
VIN
p23
tp24
a(Veverybody.
p25
VNNP
p26
tp27
a(VMaltitol
p28
VNNP
p29
tp30
a(Vis
p31
VVBZ
p32
tp33
a(Van
p34
VDT
p35
tp36
a(Valcohol
p37
VNN
p38
tp39
a(Vsugar
p40
VNN
p41
tp42
a(Vand
p43
VCC
p44
tp45
a(Vcan
p46
VMD
p47
tp48
a(Vbe
p49
VVB
p50
tp51
a(Vundigestible
p52
VJJ
p53
tp54
a(Vin
p55
VIN
p56
tp57
a(Vthe
p58
VDT
p59
tp60
a(Vbody.
p61
VNN
p62
tp63
a(VYou
p64
VPRP
p65
tp66
a(Vwill
p67
VMD
p68
tp69
a(Vknow
p70
VVB
p71
tp72
a(Va
p73
VDT
p74
tp75
a(Vshort
p76
VJJ
p77
tp78
a(Vtime
p79
VNN
p80
tp81
a(Vafter
p82
VIN
p83
tp84
a(Vconsuming
p85
VVBG
p86
tp87
a(Vit
p88
VPRP
p89
tp90
a(Vif
p91
VIN
p92
tp93
a(Vyou
p94
VPRP
p95
tp96
a(Vare
p97
VVBP
p98
tp99
a(Vone
p100
VCD
p101
tp102
a(Vof
p103
VIN
p104
tp105
a(Vthe
p106
VDT
p107
tp108
a(Vunsuspecting
p109
VJJ
p110
tp111
a(Vmany
p112
VJJ
p113
tp114
a(Vwho
p115
VWP
p116
tp117
a(Vcannot
p118
VVBP
p119
tp120
a(Vdigest
p121
VVB
p122
tp123
a(Vit
p124
VPRP
p125
tp126
a(Vby
p127
VIN
p128
tp129
a(Vthe
p130
VDT
p131
tp132
a(Vextreme
p133
VJJ
p134
tp135
a(Vintestinal
p136
VJJ
p137
tp138
a(Vbloating
p139
VNN
p140
tp141
a(Vand
p142
VCC
p143
tp144
a(Vcramping
p145
VNN
p146
tp147
a(Vand
p148
VCC
p149
tp150
a(Vmassive
p151
VJJ
p152
tp153
a(Vamounts
p154
VNNS
p155
tp156
a(Vof
p157
VIN
p158
tp159
a(Vgas
p160
VNN
p161
tp162
a(g73
VDT
p163
tp164
a(Vperson
p165
VNN
p166
tp167
a(Vcan
p168
VMD
p169
tp170
a(Vexperience.
p171
VVB
p172
tp173
a(VNausea,
p174
VNN
p175
tp176
a(Vdiarrhea
p177
VNN
p178
tp179
a(V&
p180
VCC
p181
tp182
a(Vheadaches
p183
VNNS
p184
tp185
a(Vcan
p186
VMD
p187
tp188
a(Valso
p189
VRB
p190
tp191
a(Vbe
p192
VVB
p193
tp194
a(Vexperienced.
p195
VVBN
p196
tp197
a(VI
p198
VPRP
p199
tp200
a(Vlearned
p201
VVBD
p202
tp203
a(Vmy
p204
VPRP$
p205
tp206
a(Vlesson
p207
VNN
p208
tp209
a(Vthe
p210
VDT
p211
tp212
a(Vhard
p213
VJJ
p214
tp215
a(Vway
p216
VNN
p217
tp218
a(Vyears
p219
VNNS
p220
tp221
a(Vago
p222
VIN
p223
tp224
a(Vwhen
p225
VWRB
p226
tp227
a(g198
VPRP
p228
tp229
a(Vfell
p230
VVBD
p231
tp232
a(Vin
p233
VIN
p234
tp235
a(Vlove
p236
VNN
p237
tp238
a(Vwith
p239
VIN
p240
tp241
a(Vthe
p242
VDT
p243
tp244
a(Vsugar-free
p245
VJJ
p246
tp247
a(Vchocolates
p248
VNNS
p249
tp250
a(Vsuzanne
p251
VVBP
p252
tp253
a(Vsommers
p254
VNNS
p255
tp256
a(Vused
p257
VVBN
p258
tp259
a(Vto
p260
VTO
p261
tp262
a(Vsell.
p263
VVB
p264
tp265
a(g198
VPRP
p266
tp267
a(Vthought
p268
VVBD
p269
tp270
a(VI'd
p271
VNN
p272
tp273
a(Vfound
p274
VVBD
p275
tp276
a(Vsugar-free
p277
VJJ
p278
tp279
a(Vchocolate
p280
VNN
p281
tp282
a(Vnirvana
p283
VNN
p284
tp285
a(Vat
p286
VIN
p287
tp288
a(Vfirst
p289
VJJ
p290
tp291
a(Vtaste
p292
VNN
p293
tp294
a(Vbut
p295
VCC
p296
tp297
a(Vthe
p298
VDT
p299
tp300
a(Vbliss
p301
VNN
p302
tp303
a(Vwas
p304
VVBD
p305
tp306
a(Vshort
p307
VRB
p308
tp309
a(Vlived
p310
VVBN
p311
tp312
a(Vwhen
p313
VWRB
p314
tp315
a(Vthe
p316
VDT
p317
tp318
a(Vterrible
p319
VJJ
p320
tp321
a(Vside
p322
VJJ
p323
tp324
a(Veffects
p325
VNNS
p326
tp327
a(Vof
p328
VIN
p329
tp330
a(Vmaltitol
p331
VNN
p332
tp333
a(Vkicked
p334
VVBD
p335
tp336
a(Vin.
p337
VRB
p338
tp339
a(VThe
p340
VDT
p341
tp342
a(Vdiscomfort
p343
VNN
p344
tp345
a(Vwas
p346
VVBD
p347
tp348
a(Vunlike
p349
VIN
p350
tp351
a(Vanything
p352
VNN
p353
tp354
a(g198
VPRP
p355
tp356
a(Vhad
p357
VVBD
p358
tp359
a(Vever
p360
VRB
p361
tp362
a(Vfelt
p363
VVBN
p364
tp365
a(Vbefore.
p366
VNN
p367
tp368
a(g198
VPRP
p369
tp370
a(Vblew
p371
VVBD
p372
tp373
a(Vup
p374
VRP
p375
tp376
a(Vlike
p377
VIN
p378
tp379
a(g73
VDT
p380
tp381
a(Vballoon
p382
VNN
p383
tp384
a(Vand
p385
VCC
p386
tp387
a(Vhad
p388
VVBD
p389
tp390
a(Vvery
p391
VRB
p392
tp393
a(Vpainful
p394
VJJ
p395
tp396
a(Vabdominal
p397
VJJ
p398
tp399
a(Vcramping.
p400
VNN
p401
tp402
a(VAs
p403
VIN
p404
tp405
a(Vthe
p406
VDT
p407
tp408
a(Vsymptoms
p409
VNNS
p410
tp411
a(Vpassed,
p412
VVBP
p413
tp414
a(Vthis
p415
VDT
p416
tp417
a(Vtoo
p418
VRB
p419
tp420
a(Vwas
p421
VVBD
p422
tp423
a(Vvery
p424
VRB
p425
tp426
a(Vunpleasant.
p427
VJJ
p428
tp429
a(VThough
p430
VNNP
p431
tp432
a(Vhard
p433
VJJ
p434
tp435
a(Vfor
p436
VIN
p437
tp438
a(Vme
p439
VPRP
p440
tp441
a(Vto
p442
VTO
p443
tp444
a(Vbelieve
p445
VVB
p446
tp447
a(g73
VDT
p448
tp449
a(Vlow
p450
VJJ
p451
tp452
a(Vcalorie
p453
VNN
p454
tp455
a(Vsweetener
p456
VNN
p457
tp458
a(Vcould
p459
VMD
p460
tp461
a(Vbe
p462
VVB
p463
tp464
a(Vthe
p465
VDT
p466
tp467
a(Vculprit,
p468
VNN
p469
tp470
a(Vall
p471
VDT
p472
tp473
a(Vsymptoms
p474
VNNS
p475
tp476
a(Vwere
p477
VVBD
p478
tp479
a(Vgone
p480
VVBN
p481
tp482
a(Vwhen
p483
VWRB
p484
tp485
a(g198
VPRP
p486
tp487
a(Vstopped
p488
VVBD
p489
tp490
a(Veating
p491
VVBG
p492
tp493
a(Vthe
p494
VDT
p495
tp496
a(Vchocolate.
p497
VNN
p498
tp499
a(VMy
p500
VPRP$
p501
tp502
a(Vhunch
p503
VNN
p504
tp505
a(Vit
p506
VPRP
p507
tp508
a(Vhad
p509
VVBD
p510
tp511
a(Vsomething
p512
VNN
p513
tp514
a(Vto
p515
VTO
p516
tp517
a(Vdo
p518
VVB
p519
tp520
a(Vwith
p521
VIN
p522
tp523
a(Vthe
p524
VDT
p525
tp526
a(Vmaltitol
p527
VNN
p528
tp529
a(Vwere
p530
VVBD
p531
tp532
a(Vunfortunately
p533
VRB
p534
tp535
a(Vconfirmed
p536
VVBN
p537
tp538
a(Vfor
p539
VIN
p540
tp541
a(Vme
p542
VPRP
p543
tp544
a(Vabout
p545
VIN
p546
tp547
a(g73
VDT
p548
tp549
a(Vyear
p550
VNN
p551
tp552
a(Vlater
p553
VRB
p554
tp555
a(Vwhen
p556
VWRB
p557
tp558
a(g198
VPRP
p559
tp560
a(Vpurchased
p561
VVBD
p562
tp563
a(Vsome
p564
VDT
p565
tp566
a(Vdelicious
p567
VJJ
p568
tp569
a(Vsugar-free
p570
VJJ
p571
tp572
a(Vpopcorn
p573
VNN
p574
tp575
a(Vat
p576
VIN
p577
tp578
a(Vmy
p579
VPRP$
p580
tp581
a(Vlocal
p582
VJJ
p583
tp584
a(Vmarket.
p585
VNN
p586
tp587
a(VThe
p588
VDT
p589
tp590
a(Vtaste
p591
VNN
p592
tp593
a(Vwas
p594
VVBD
p595
tp596
a(Vamazing
p597
VJJ
p598
tp599
a(Vand
p600
VCC
p601
tp602
a(Vwhile
p603
VIN
p604
tp605
a(g198
VPRP
p606
tp607
a(Vwas
p608
VVBD
p609
tp610
a(Vlooking
p611
VVBG
p612
tp613
a(Vat
p614
VIN
p615
tp616
a(Vthe
p617
VDT
p618
tp619
a(Vlabel
p620
VNN
p621
tp622
a(Vwondering
p623
VVBG
p624
tp625
a(Vwhat
p626
VWP
p627
tp628
a(Vcould
p629
VMD
p630
tp631
a(Vpossibly
p632
VRB
p633
tp634
a(Vmake
p635
VVB
p636
tp637
a(Vthis
p638
VDT
p639
tp640
a(Vyummy,
p641
VJJ
p642
tp643
a(Vnew
p644
VJJ
p645
tp646
a(Vsugarfree
p647
VJJ
p648
tp649
a(Vtreat
p650
VNN
p651
tp652
a(Vtaste
p653
VNN
p654
tp655
a(Vso
p656
VIN
p657
tp658
a(Vgood,
p659
VNN
p660
tp661
a(Vmy
p662
VPRP$
p663
tp664
a(Vheart
p665
VNN
p666
tp667
a(Vsank
p668
VVBD
p669
tp670
a(Vwhen
p671
VWRB
p672
tp673
a(g198
VPRP
p674
tp675
a(Vfollowed
p676
VVBD
p677
tp678
a(Vthe
p679
VDT
p680
tp681
a(Vlittle
p682
VJJ
p683
tp684
a(Vasterisk
p685
VNN
p686
tp687
a(Vnext
p688
VJJ
p689
tp690
a(Vto
p691
VTO
p692
tp693
a(Vsugarfree
p694
VJJ
p695
tp696
a(Vsweetener*
p697
VNN
p698
tp699
a(Vdown
p700
VIN
p701
tp702
a(Vto
p703
VTO
p704
tp705
a(Vthe
p706
VDT
p707
tp708
a(Vvery
p709
VJJ
p710
tp711
a(Vbottom
p712
VNN
p713
tp714
a(Vof
p715
VIN
p716
tp717
a(Vthe
p718
VDT
p719
tp720
a(Vlabel
p721
VNN
p722
tp723
a(Vand
p724
VCC
p725
tp726
a(Vread
p727
VVB
p728
tp729
a(V"maltitol"
p730
VNN
p731
tp732
a(Vin
p733
VIN
p734
tp735
a(Vtiny
p736
VJJ
p737
tp738
a(Vlittle
p739
VJJ
p740
tp741
a(Vletters!
p742
VNN
p743
tp744
a(VThank
p745
VVB
p746
tp747
a(Vgoodness
p748
VNN
p749
tp750
a(VI'd
p751
VNN
p752
tp753
a(Veaten
p754
VVBD
p755
tp756
a(Vonly
p757
VRB
p758
tp759
a(g73
VDT
p760
tp761
a(Vlittle.
p762
VNN
p763
tp764
a(g198
VPRP
p765
tp766
a(Vstill
p767
VRB
p768
tp769
a(Vended
p770
VVBD
p771
tp772
a(Vup
p773
VRP
p774
tp775
a(Vwith
p776
VIN
p777
tp778
a(Vall
p779
VPDT
p780
tp781
a(Vthe
p782
VDT
p783
tp784
a(Vsame
p785
VJJ
p786
tp787
a(Vside-effects
p788
VNNS
p789
tp790
a(Vbut
p791
VCC
p792
tp793
a(Vfor
p794
VIN
p795
tp796
a(g73
VDT
p797
tp798
a(Vmuch
p799
VRB
p800
tp801
a(Vshorter
p802
VJJR
p803
tp804
a(Vduration.
p805
VNN
p806
tp807
a(VSome
p808
VDT
p809
tp810
a(Vpeople
p811
VNNS
p812
tp813
a(Vcan
p814
VMD
p815
tp816
a(Vuse
p817
VVB
p818
tp819
a(Vmaltitol
p820
VNN
p821
tp822
a(Vto
p823
VTO
p824
tp825
a(Vtheir
p826
VPRP$
p827
tp828
a(Vheart's
p829
VNN
p830
tp831
a(Vcontent
p832
VNN
p833
tp834
a(Vbut
p835
VCC
p836
tp837
a(Vothers,
p838
VNN
p839
tp840
a(Vlike
p841
VIN
p842
tp843
a(Vme,
p844
VNN
p845
tp846
a(Vcan
p847
VMD
p848
tp849
a(Vhave
p850
VVB
p851
tp852
a(g73
VDT
p853
tp854
a(Vbad
p855
VJJ
p856
tp857
a(Vreaction
p858
VNN
p859
tp860
a(Vto
p861
VTO
p862
tp863
a(Vit.
p864
VVB
p865
tp866
a(VIn
p867
VIN
p868
tp869
a(Vcase
p870
VNN
p871
tp872
a(Vyou're
p873
VNN
p874
tp875
a(Vlike
p876
VIN
p877
tp878
a(Vme,
p879
VNN
p880
tp881
a(V...
p882
V:
p883
tp884
a(Vit's
p885
VNNS
p886
tp887
a(Vnot
p888
VRB
p889
tp890
a(Vyou
p891
VPRP
p892
tp893
a(V...it's
p894
VVBP
p895
tp896
a(Vthe
p897
VDT
p898
tp899
a(Vmaltitol!
p900
VNN
p901
tp902
a.