(lp0
(VI
p1
VPRP
p2
tp3
a(VWAS
p4
VVBD
p5
tp6
a(VVISITING
p7
VNNP
p8
tp9
a(VMY
p10
VNNP
p11
tp12
a(VFRIEND
p13
VNNP
p14
tp15
a(VNATE
p16
VNNP
p17
tp18
a(VTHE
p19
VDT
p20
tp21
a(VOTHER
p22
VJJ
p23
tp24
a(VMORNING
p25
VNN
p26
tp27
a(VFOR
p28
VIN
p29
tp30
a(VCOFFEE
p31
VNN
p32
tp33
a(V,
p34
g34
tp35
a(VHE
p36
VPRP
p37
tp38
a(VCAME
p39
VVBD
p40
tp41
a(VOUT
p42
VNNP
p43
tp44
a(VOF
p45
VIN
p46
tp47
a(VHIS
p48
VPRP$
p49
tp50
a(VSTORAGE
p51
VNN
p52
tp53
a(VROOM
p54
VNN
p55
tp56
a(VWITH
p57
VIN
p58
tp59
a(V(
p60
VNN
p61
tp62
a(VA
p63
VDT
p64
tp65
a(VPACKET
p66
VNN
p67
tp68
a(VOF
p69
VIN
p70
tp71
a(VMcCANNS
p72
VFW
p73
tp74
a(VINSTANT
p75
VFW
p76
tp77
a(VIRISH
p78
VFW
p79
tp80
a(VOATMEAL
p81
VFW
p82
tp83
a(V.)
p84
VFW
p85
tp86
a(VHE
p87
VPRP
p88
tp89
a(VSUGGESTED
p90
VVBD
p91
tp92
a(VTHAT
p93
VWDT
p94
tp95
a(g1
VPRP
p96
tp97
a(VTRY
p98
VNNP
p99
tp100
a(VIT
p101
VNNP
p102
tp103
a(VFOR
p104
VIN
p105
tp106
a(VMY
p107
VNNP
p108
tp109
a(VOWN
p110
VNNP
p111
tp112
a(VUSE
p113
VNNP
p114
tp115
a(V,IN
p116
VNNP
p117
tp118
a(VMY
p119
VNNP
p120
tp121
a(VSTASH
p122
VNNP
p123
tp124
a(V.
p125
g125
tp126
a(VSOMETIMES
p127
VNNP
p128
tp129
a(VNATE
p130
VNNP
p131
tp132
a(VDOSE
p133
VNNP
p134
tp135
a(VNOT
p136
VNNP
p137
tp138
a(VGIVE
p139
VVB
p140
tp141
a(VYOU
p142
VPRP
p143
tp144
a(g63
VDT
p145
tp146
a(VCHANCE
p147
VNN
p148
tp149
a(VTO
p150
VTO
p151
tp152
a(VSAY
p153
VNN
p154
tp155
a(VNO
p156
VNN
p157
tp158
a(g34
g34
tp159
a(VSO
p160
VNN
p161
tp162
a(g1
VPRP
p163
tp164
a(VENDED
p165
VVBD
p166
tp167
a(VUP
p168
VRP
p169
tp170
a(VTRYING
p171
VVBG
p172
tp173
a(VTHE
p174
VDT
p175
tp176
a(VAPPLE
p177
VNNP
p178
tp179
a(VAND
p180
VNNP
p181
tp182
a(VCINN
p183
VNNP
p184
tp185
a(g125
g125
tp186
a(VFOUND
p187
VNNP
p188
tp189
a(VIT
p190
VNNP
p191
tp192
a(VTO
p193
VTO
p194
tp195
a(VBE
p196
VVB
p197
tp198
a(VVERY
p199
VNNP
p200
tp201
a(VTASTEFULL
p202
VNNP
p203
tp204
a(VWHEN
p205
VWRB
p206
tp207
a(VMADE
p208
VVBN
p209
tp210
a(VWITH
p211
VIN
p212
tp213
a(VWATER
p214
VNN
p215
tp216
a(VOR
p217
VNN
p218
tp219
a(VPOWDERED
p220
VNNP
p221
tp222
a(VMILK
p223
VNNP
p224
tp225
a(g125
g125
tp226
a(VIT
p227
VNNP
p228
tp229
a(VGOES
p230
VNNP
p231
tp232
a(VGOOD
p233
VNNP
p234
tp235
a(VWITH
p236
VIN
p237
tp238
a(VO.J.
p239
VNNP
p240
tp241
a(VAND
p242
VNNP
p243
tp244
a(VCOFFEE
p245
VNN
p246
tp247
a(VAND
p248
VCC
p249
tp250
a(g63
VDT
p251
tp252
a(VSLICE
p253
VNN
p254
tp255
a(VOF
p256
VIN
p257
tp258
a(VTOAST
p259
VNN
p260
tp261
a(VAND
p262
VCC
p263
tp264
a(VYOUR
p265
VJJ
p266
tp267
a(VREADY
p268
VNNP
p269
tp270
a(VTO
p271
VTO
p272
tp273
a(VTAKE
p274
VVB
p275
tp276
a(VON
p277
VIN
p278
tp279
a(VTHE
p280
VDT
p281
tp282
a(VWORLD...OR
p283
VNN
p284
tp285
a(VTHE
p286
VDT
p287
tp288
a(VDAY
p289
VNNP
p290
tp291
a(VAT
p292
VNNP
p293
tp294
a(VLEAST..
p295
VNNP
p296
tp297
a(VJERRY
p298
VNNP
p299
tp300
a(VREITH...
p301
VNNP
p302
tp303
a.