(lp0
(VI
p1
VPRP
p2
tp3
a(Vhave
p4
VVBP
p5
tp6
a(VMcCann's
p7
VNNP
p8
tp9
a(VOatmeal
p10
VNNP
p11
tp12
a(Vevery
p13
VDT
p14
tp15
a(Vmorning
p16
VNN
p17
tp18
a(Vand
p19
VCC
p20
tp21
a(Vby
p22
VIN
p23
tp24
a(Vordering
p25
VVBG
p26
tp27
a(Vit
p28
VPRP
p29
tp30
a(Vfrom
p31
VIN
p32
tp33
a(VAmazon
p34
VNNP
p35
tp36
a(g1
VPRP
p37
tp38
a(Vam
p39
VVBP
p40
tp41
a(Vable
p42
VJJ
p43
tp44
a(Vto
p45
VTO
p46
tp47
a(Vsave
p48
VVB
p49
tp50
a(Valmost
p51
VRB
p52
tp53
a(V$3.00
p54
VCD
p55
tp56
a(Vper
p57
VIN
p58
tp59
a(Vbox.It
p60
VNN
p61
tp62
a(Vis
p63
VVBZ
p64
tp65
a(Va
p66
VDT
p67
tp68
a(Vgreat
p69
VJJ
p70
tp71
a(Vproduct.
p72
VNN
p73
tp74
a(VTastes
p75
VNNS
p76
tp77
a(Vgreat
p78
VJJ
p79
tp80
a(Vand
p81
VCC
p82
tp83
a(Vvery
p84
VRB
p85
tp86
a(Vhealthy
p87
VJJ
p88
tp89
a.