(lp0
(VWe
p1
VPRP
p2
tp3
a(Vroast
p4
VNN
p5
tp6
a(Vthese
p7
VDT
p8
tp9
a(Vin
p10
VIN
p11
tp12
a(Va
p13
VDT
p14
tp15
a(Vlarge
p16
VJJ
p17
tp18
a(Vcast
p19
VNN
p20
tp21
a(Viron
p22
VNN
p23
tp24
a(Vpan
p25
VNN
p26
tp27
a(Von
p28
VIN
p29
tp30
a(Vthe
p31
VDT
p32
tp33
a(Vgrill
p34
VNN
p35
tp36
a(V(about
p37
VNN
p38
tp39
a(V1/3
p40
VCD
p41
tp42
a(Vof
p43
VIN
p44
tp45
a(Vthe
p46
VDT
p47
tp48
a(Vbag
p49
VNN
p50
tp51
a(Vat
p52
VIN
p53
tp54
a(g13
VDT
p55
tp56
a(Vtime).
p57
VNN
p58
tp59
a(VThe
p60
VDT
p61
tp62
a(Vsmell
p63
VNN
p64
tp65
a(Vis
p66
VVBZ
p67
tp68
a(Vwonderful
p69
VJJ
p70
tp71
a(Vand
p72
VCC
p73
tp74
a(Vthe
p75
VDT
p76
tp77
a(Vroasted
p78
VJJ
p79
tp80
a(Vbeans
p81
VNNS
p82
tp83
a(Vtaste
p84
VVBP
p85
tp86
a(Vdelicious
p87
VJJ
p88
tp89
a(Vtoo.
p90
VNN
p91
tp92
a(VMore
p93
VJJR
p94
tp95
a(Vimportantly,
p96
VNN
p97
tp98
a(Vthe
p99
VDT
p100
tp101
a(Vcoffee
p102
VNN
p103
tp104
a(Vis
p105
VVBZ
p106
tp107
a(Vsmooth;
p108
VNN
p109
tp110
a(Vno
p111
VDT
p112
tp113
a(Vbitter
p114
VJJ
p115
tp116
a(Vaftertaste.
p117
VNN
p118
tp119
a(VOn
p120
VIN
p121
tp122
a(Vnumerous
p123
VJJ
p124
tp125
a(Voccasions,
p126
VNN
p127
tp128
a(Vwe've
p129
VNN
p130
tp131
a(Vhad
p132
VVBD
p133
tp134
a(Vto
p135
VTO
p136
tp137
a(Vsend
p138
VVB
p139
tp140
a(Vthe
p141
VDT
p142
tp143
a(Vroasted
p144
VJJ
p145
tp146
a(Vbeans
p147
VNNS
p148
tp149
a(Vhome
p150
VNN
p151
tp152
a(Vwith
p153
VIN
p154
tp155
a(Vfriends
p156
VNNS
p157
tp158
a(Vbecause
p159
VIN
p160
tp161
a(Vthey
p162
VPRP
p163
tp164
a(Vlike
p165
VVBP
p166
tp167
a(Vit
p168
VPRP
p169
tp170
a(Vso
p171
VIN
p172
tp173
a(Vmuch.
p174
VNN
p175
tp176
a.