(lp0
(VThe
p1
VDT
p2
tp3
a(Vcandy
p4
VNN
p5
tp6
a(Vis
p7
VVBZ
p8
tp9
a(Vjust
p10
VRB
p11
tp12
a(Vred
p13
VJJ
p14
tp15
a(V,
p16
g16
tp17
a(VNo
p18
VDT
p19
tp20
a(Vflavor
p21
VNN
p22
tp23
a(V.
p24
g24
tp25
a(VJust
p26
VRB
p27
tp28
a(Vplan
p29
VVB
p30
tp31
a(Vand
p32
VCC
p33
tp34
a(Vchewy
p35
VVB
p36
tp37
a(g24
g24
tp38
a(VI
p39
VPRP
p40
tp41
a(Vwould
p42
VMD
p43
tp44
a(Vnever
p45
VRB
p46
tp47
a(Vbuy
p48
VVB
p49
tp50
a(Vthem
p51
VPRP
p52
tp53
a(Vagain
p54
VRB
p55
tp56
a.