(lp0
(VI
p1
VPRP
p2
tp3
a(Vbought
p4
VVBD
p5
tp6
a(Vthese
p7
VDT
p8
tp9
a(Vfor
p10
VIN
p11
tp12
a(Vmy
p13
VPRP$
p14
tp15
a(Vhusband
p16
VNN
p17
tp18
a(Vwho
p19
VWP
p20
tp21
a(Vis
p22
VVBZ
p23
tp24
a(Vcurrently
p25
VRB
p26
tp27
a(Voverseas.
p28
VVBN
p29
tp30
a(VHe
p31
VPRP
p32
tp33
a(Vloves
p34
VVBZ
p35
tp36
a(Vthese,
p37
VNN
p38
tp39
a(Vand
p40
VCC
p41
tp42
a(Vapparently
p43
VRB
p44
tp45
a(Vhis
p46
VPRP$
p47
tp48
a(Vstaff
p49
VNN
p50
tp51
a(Vlikes
p52
VVBZ
p53
tp54
a(Vthem
p55
VPRP
p56
tp57
a(Valso.There
p58
VNN
p59
tp60
a(Vare
p61
VVBP
p62
tp63
a(Vgenerous
p64
VJJ
p65
tp66
a(Vamounts
p67
VNNS
p68
tp69
a(Vof
p70
VIN
p71
tp72
a(VTwizzlers
p73
VNNPS
p74
tp75
a(Vin
p76
VIN
p77
tp78
a(Veach
p79
VDT
p80
tp81
a(V16-ounce
p82
VJJ
p83
tp84
a(Vbag,
p85
VNN
p86
tp87
a(Vand
p88
VCC
p89
tp90
a(Vthis
p91
VDT
p92
tp93
a(Vwas
p94
VVBD
p95
tp96
a(Vwell
p97
VRB
p98
tp99
a(Vworth
p100
VJJ
p101
tp102
a(Vthe
p103
VDT
p104
tp105
a(Vprice.
p106
VFW
p107
tp108
a(VTwizzlers,
p109
VFW
p110
tp111
a(VStrawberry,
p112
VFW
p113
tp114
a(V16-Ounce
p115
VFW
p116
tp117
a(VBags
p118
VFW
p119
tp120
a(V(Pack
p121
VNN
p122
tp123
a(Vof
p124
VIN
p125
tp126
a(V6)
p127
VNN
p128
tp129
a.