(lp0
(Vi
p1
VLS
p2
tp3
a(Vknow
p4
VVB
p5
tp6
a(g1
VFW
p7
tp8
a(Vcannot
p9
VFW
p10
tp11
a(Vmake
p12
VVB
p13
tp14
a(Vtea
p15
VNN
p16
tp17
a(Vthis
p18
VDT
p19
tp20
a(Vgood.
p21
VFW
p22
tp23
a(Vgranted,
p24
VFW
p25
tp26
a(g1
VFW
p27
tp28
a(Vam
p29
VVBP
p30
tp31
a(Vnot
p32
VRB
p33
tp34
a(Vfrom
p35
VIN
p36
tp37
a(Vthe
p38
VDT
p39
tp40
a(Vsouth
p41
VNN
p42
tp43
a(Vbut
p44
VCC
p45
tp46
a(g1
VLS
p47
tp48
a(Vknow
p49
VVB
p50
tp51
a(g1
VLS
p52
tp53
a(Vhave
p54
VVBP
p55
tp56
a(Vnever
p57
VRB
p58
tp59
a(Venjoyed
p60
VVBN
p61
tp62
a(Vtea
p63
VNN
p64
tp65
a(Vthat
p66
VWDT
p67
tp68
a(Vwas
p69
VVBD
p70
tp71
a(Vthis
p72
VDT
p73
tp74
a(Vsweet
p75
VJJ
p76
tp77
a(Vwithout
p78
VIN
p79
tp80
a(Vbeing
p81
VVBG
p82
tp83
a(Vtoo
p84
VRB
p85
tp86
a(Vsweet.
p87
VJJ
p88
tp89
a(Vit
p90
VPRP
p91
tp92
a(Vtastes
p93
VVBZ
p94
tp95
a(Vcrisp.
p96
VNN
p97
tp98
a.