(lp0
(VMcCann's
p1
VNNP
p2
tp3
a(VInstant
p4
VNNP
p5
tp6
a(VOatmeal
p7
VNNP
p8
tp9
a(Vis
p10
VVBZ
p11
tp12
a(Vgreat
p13
VJJ
p14
tp15
a(Vif
p16
VIN
p17
tp18
a(Vyou
p19
VPRP
p20
tp21
a(Vmust
p22
VMD
p23
tp24
a(Vhave
p25
VVB
p26
tp27
a(Vyour
p28
VPRP$
p29
tp30
a(Voatmeal
p31
VNN
p32
tp33
a(Vbut
p34
VCC
p35
tp36
a(Vcan
p37
VMD
p38
tp39
a(Vonly
p40
VRB
p41
tp42
a(Vscrape
p43
VVB
p44
tp45
a(Vtogether
p46
VRB
p47
tp48
a(Vtwo
p49
VCD
p50
tp51
a(Vor
p52
VCC
p53
tp54
a(Vthree
p55
VCD
p56
tp57
a(Vminutes
p58
VNNS
p59
tp60
a(Vto
p61
VTO
p62
tp63
a(Vprepare
p64
VVB
p65
tp66
a(Vit.
p67
VFW
p68
tp69
a(VThere
p70
VEX
p71
tp72
a(Vis
p73
VVBZ
p74
tp75
a(Vno
p76
VDT
p77
tp78
a(Vescaping
p79
VVBG
p80
tp81
a(Vthe
p82
VDT
p83
tp84
a(Vfact,
p85
VFW
p86
tp87
a(Vhowever,
p88
VFW
p89
tp90
a(Vthat
p91
VIN
p92
tp93
a(Veven
p94
VRB
p95
tp96
a(Vthe
p97
VDT
p98
tp99
a(Vbest
p100
VJJS
p101
tp102
a(Vinstant
p103
VNN
p104
tp105
a(Voatmeal
p106
VNN
p107
tp108
a(Vis
p109
VVBZ
p110
tp111
a(Vnowhere
p112
VRB
p113
tp114
a(Vnear
p115
VIN
p116
tp117
a(Vas
p118
VRB
p119
tp120
a(Vgood
p121
VJJ
p122
tp123
a(Vas
p124
VIN
p125
tp126
a(Veven
p127
VRB
p128
tp129
a(Va
p130
VDT
p131
tp132
a(Vstore
p133
VNN
p134
tp135
a(Vbrand
p136
VNN
p137
tp138
a(Vof
p139
VIN
p140
tp141
a(Voatmeal
p142
VNN
p143
tp144
a(Vrequiring
p145
VVBG
p146
tp147
a(Vstovetop
p148
VNN
p149
tp150
a(Vpreparation.
p151
VFW
p152
tp153
a(VStill,
p154
VFW
p155
tp156
a(Vthe
p157
VDT
p158
tp159
a(VMcCann's
p160
VNN
p161
tp162
a(Vis
p163
VVBZ
p164
tp165
a(Vas
p166
VRB
p167
tp168
a(Vgood
p169
VJJ
p170
tp171
a(Vas
p172
VIN
p173
tp174
a(Vit
p175
VPRP
p176
tp177
a(Vgets
p178
VVBZ
p179
tp180
a(Vfor
p181
VIN
p182
tp183
a(Vinstant
p184
VJJ
p185
tp186
a(Voatmeal.
p187
VFW
p188
tp189
a(VIt's
p190
VFW
p191
tp192
a(Veven
p193
VRB
p194
tp195
a(Vbetter
p196
VRBR
p197
tp198
a(Vthan
p199
VIN
p200
tp201
a(Vthe
p202
VDT
p203
tp204
a(Vorganic,
p205
VNN
p206
tp207
a(Vall-natural
p208
VJJ
p209
tp210
a(Vbrands
p211
VNNS
p212
tp213
a(VI
p214
VPRP
p215
tp216
a(Vhave
p217
VVBP
p218
tp219
a(Vtried.
p220
VVBN
p221
tp222
a(VAll
p223
VPDT
p224
tp225
a(Vthe
p226
VDT
p227
tp228
a(Vvarieties
p229
VNNS
p230
tp231
a(Vin
p232
VIN
p233
tp234
a(Vthe
p235
VDT
p236
tp237
a(VMcCann's
p238
VNN
p239
tp240
a(Vvariety
p241
VNN
p242
tp243
a(Vpack
p244
VNN
p245
tp246
a(Vtaste
p247
VNN
p248
tp249
a(Vgood.
p250
VNN
p251
tp252
a(VIt
p253
VPRP
p254
tp255
a(Vcan
p256
VMD
p257
tp258
a(Vbe
p259
VVB
p260
tp261
a(Vprepared
p262
VVBN
p263
tp264
a(Vin
p265
VIN
p266
tp267
a(Vthe
p268
VDT
p269
tp270
a(Vmicrowave
p271
VNN
p272
tp273
a(Vor
p274
VCC
p275
tp276
a(Vby
p277
VIN
p278
tp279
a(Vadding
p280
VVBG
p281
tp282
a(Vboiling
p283
VJJ
p284
tp285
a(Vwater
p286
VNN
p287
tp288
a(Vso
p289
VIN
p290
tp291
a(Vit
p292
VPRP
p293
tp294
a(Vis
p295
VVBZ
p296
tp297
a(Vconvenient
p298
VJJ
p299
tp300
a(Vin
p301
VIN
p302
tp303
a(Vthe
p304
VDT
p305
tp306
a(Vextreme
p307
VNN
p308
tp309
a(Vwhen
p310
VWRB
p311
tp312
a(Vtime
p313
VNN
p314
tp315
a(Vis
p316
VVBZ
p317
tp318
a(Van
p319
VDT
p320
tp321
a(Vissue.McCann's
p322
VNN
p323
tp324
a(Vuse
p325
VNN
p326
tp327
a(Vof
p328
VIN
p329
tp330
a(Vactual
p331
VJJ
p332
tp333
a(Vcane
p334
VNN
p335
tp336
a(Vsugar
p337
VNN
p338
tp339
a(Vinstead
p340
VRB
p341
tp342
a(Vof
p343
VIN
p344
tp345
a(Vhigh
p346
VJJ
p347
tp348
a(Vfructose
p349
VNN
p350
tp351
a(Vcorn
p352
VNN
p353
tp354
a(Vsyrup
p355
VNN
p356
tp357
a(Vhelped
p358
VVBD
p359
tp360
a(Vme
p361
VPRP
p362
tp363
a(Vdecide
p364
VVB
p365
tp366
a(Vto
p367
VTO
p368
tp369
a(Vbuy
p370
VVB
p371
tp372
a(Vthis
p373
VDT
p374
tp375
a(Vproduct.
p376
VNNP
p377
tp378
a(VReal
p379
VNNP
p380
tp381
a(Vsugar
p382
VNN
p383
tp384
a(Vtastes
p385
VNNS
p386
tp387
a(Vbetter
p388
VRBR
p389
tp390
a(Vand
p391
VCC
p392
tp393
a(Vis
p394
VVBZ
p395
tp396
a(Vnot
p397
VRB
p398
tp399
a(Vas
p400
VRB
p401
tp402
a(Vharmful
p403
VJJ
p404
tp405
a(Vas
p406
VIN
p407
tp408
a(Vthe
p409
VDT
p410
tp411
a(Vother
p412
VJJ
p413
tp414
a(Vstuff.
p415
VNN
p416
tp417
a(VOne
p418
VCD
p419
tp420
a(Vthing
p421
VNN
p422
tp423
a(g214
VPRP
p424
tp425
a(Vdo
p426
VVBP
p427
tp428
a(Vnot
p429
VRB
p430
tp431
a(Vlike,
p432
VFW
p433
tp434
a(Vthough,
p435
VFW
p436
tp437
a(Vis
p438
VVBZ
p439
tp440
a(VMcCann's
p441
VJJ
p442
tp443
a(Vuse
p444
VNN
p445
tp446
a(Vof
p447
VIN
p448
tp449
a(Vthickeners.
p450
VNNP
p451
tp452
a(VOats
p453
VNNP
p454
tp455
a(Vplus
p456
VCC
p457
tp458
a(Vwater
p459
VNN
p460
tp461
a(Vplus
p462
VCC
p463
tp464
a(Vheat
p465
VNN
p466
tp467
a(Vshould
p468
VMD
p469
tp470
a(Vmake
p471
VVB
p472
tp473
a(g130
VDT
p474
tp475
a(Vcreamy,
p476
VNN
p477
tp478
a(Vtasty
p479
VJJ
p480
tp481
a(Voatmeal
p482
VNN
p483
tp484
a(Vwithout
p485
VIN
p486
tp487
a(Vthe
p488
VDT
p489
tp490
a(Vneed
p491
VNN
p492
tp493
a(Vfor
p494
VIN
p495
tp496
a(Vguar
p497
VFW
p498
tp499
a(Vgum.
p500
VFW
p501
tp502
a(VBut
p503
VCC
p504
tp505
a(Vthis
p506
VDT
p507
tp508
a(Vis
p509
VVBZ
p510
tp511
a(g130
VDT
p512
tp513
a(Vconvenience
p514
VNN
p515
tp516
a(Vproduct.
p517
VNNP
p518
tp519
a(VMaybe
p520
VNNP
p521
tp522
a(Vthe
p523
VDT
p524
tp525
a(Vguar
p526
VNN
p527
tp528
a(Vgum
p529
VNN
p530
tp531
a(Vis
p532
VVBZ
p533
tp534
a(Vwhy,
p535
VNN
p536
tp537
a(Vafter
p538
VIN
p539
tp540
a(Vsitting
p541
VVBG
p542
tp543
a(Vin
p544
VIN
p545
tp546
a(Vthe
p547
VDT
p548
tp549
a(Vbowl
p550
VNN
p551
tp552
a(g130
VDT
p553
tp554
a(Vwhile,
p555
VNN
p556
tp557
a(Vthe
p558
VDT
p559
tp560
a(Vinstant
p561
VJJ
p562
tp563
a(VMcCann's
p564
VNN
p565
tp566
a(Vbecomes
p567
VVBZ
p568
tp569
a(Vtoo
p570
VRB
p571
tp572
a(Vthick
p573
VJJ
p574
tp575
a(Vand
p576
VCC
p577
tp578
a(Vgluey.
p579
VNN
p580
tp581
a.