(lp0
(Vthis
p1
VDT
p2
tp3
a(Vwas
p4
VVBD
p5
tp6
a(Vsooooo
p7
VRB
p8
tp9
a(Vdeliscious
p10
VJJ
p11
tp12
a(Vbut
p13
VCC
p14
tp15
a(Vtoo
p16
VRB
p17
tp18
a(Vbad
p19
VJJ
p20
tp21
a(Vi
p22
VLS
p23
tp24
a(Vate
p25
VVBD
p26
tp27
a(Vem
p28
VNN
p29
tp30
a(Vtoo
p31
VRB
p32
tp33
a(Vfast
p34
VRB
p35
tp36
a(Vand
p37
VCC
p38
tp39
a(Vgained
p40
VVBD
p41
tp42
a(V2
p43
VCD
p44
tp45
a(Vpds!
p46
VNN
p47
tp48
a(Vmy
p49
VPRP$
p50
tp51
a(Vfault
p52
VNN
p53
tp54
a.