(lp0
(VWhat
p1
VWP
p2
tp3
a(Velse
p4
VRB
p5
tp6
a(Vdo
p7
VVBP
p8
tp9
a(Vyou
p10
VPRP
p11
tp12
a(Vneed
p13
VVB
p14
tp15
a(Vto
p16
VTO
p17
tp18
a(Vknow?
p19
VFW
p20
tp21
a(VOatmeal,
p22
VFW
p23
tp24
a(Vinstant
p25
VJJ
p26
tp27
a(V(make
p28
VNN
p29
tp30
a(Vit
p31
VPRP
p32
tp33
a(Vwith
p34
VIN
p35
tp36
a(Va
p37
VDT
p38
tp39
a(Vhalf
p40
VJJ
p41
tp42
a(Vcup
p43
VNN
p44
tp45
a(Vof
p46
VIN
p47
tp48
a(Vlow-fat
p49
VJJ
p50
tp51
a(Vmilk
p52
VNN
p53
tp54
a(Vand
p55
VCC
p56
tp57
a(Vadd
p58
VVB
p59
tp60
a(Vraisins;nuke
p61
VNN
p62
tp63
a(Vfor
p64
VIN
p65
tp66
a(V90
p67
VCD
p68
tp69
a(Vseconds).
p70
VNN
p71
tp72
a(VMore
p73
VRBR
p74
tp75
a(Vexpensive
p76
VJJ
p77
tp78
a(Vthan
p79
VIN
p80
tp81
a(VKroger
p82
VNNP
p83
tp84
a(Vstore
p85
VNN
p86
tp87
a(Vbrand
p88
VNN
p89
tp90
a(Voatmeal
p91
VNN
p92
tp93
a(Vand
p94
VCC
p95
tp96
a(Vmaybe
p97
VRB
p98
tp99
a(g37
VDT
p100
tp101
a(Vlittle
p102
VJJ
p103
tp104
a(Vtastier
p105
VJJR
p106
tp107
a(Vor
p108
VCC
p109
tp110
a(Vbetter
p111
VJJR
p112
tp113
a(Vtexture
p114
VNN
p115
tp116
a(Vor
p117
VCC
p118
tp119
a(Vsomething.
p120
VFW
p121
tp122
a(VIt's
p123
VFW
p124
tp125
a(Vstill
p126
VRB
p127
tp128
a(Vjust
p129
VRB
p130
tp131
a(Voatmeal.
p132
VFW
p133
tp134
a(VMmm,
p135
VFW
p136
tp137
a(Vconvenient!
p138
VNN
p139
tp140
a.