(lp0
(VFor
p1
VIN
p2
tp3
a(Vthose
p4
VDT
p5
tp6
a(Vof
p7
VIN
p8
tp9
a(Vus
p10
VPRP
p11
tp12
a(Von
p13
VIN
p14
tp15
a(Va
p16
VDT
p17
tp18
a(Vlow
p19
VJJ
p20
tp21
a(Vcarb
p22
VNN
p23
tp24
a(Vdiet
p25
VNN
p26
tp27
a(Vthese
p28
VDT
p29
tp30
a(Vlittle
p31
VJJ
p32
tp33
a(Vtablets
p34
VNNS
p35
tp36
a(Vare
p37
VVBP
p38
tp39
a(Vjust
p40
VRB
p41
tp42
a(Vthe
p43
VDT
p44
tp45
a(Vthing.Two
p46
VNN
p47
tp48
a(Vyears
p49
VNNS
p50
tp51
a(Vago
p52
VIN
p53
tp54
a(VI
p55
VPRP
p56
tp57
a(Vstarted
p58
VVBD
p59
tp60
a(Vcycling
p61
VVBG
p62
tp63
a(Vagain
p64
VRB
p65
tp66
a(Vafter
p67
VIN
p68
tp69
a(Vmany
p70
VJJ
p71
tp72
a(Vyears
p73
VNNS
p74
tp75
a(Vbut
p76
VCC
p77
tp78
a(Vwas
p79
VVBD
p80
tp81
a(Vhaving
p82
VVBG
p83
tp84
a(Vheart
p85
VNN
p86
tp87
a(Varrhythmia
p88
VNN
p89
tp90
a(Vafter
p91
VIN
p92
tp93
a(Vlonger
p94
VJJR
p95
tp96
a(Vrides
p97
VNNS
p98
tp99
a(Vin
p100
VIN
p101
tp102
a(Vhigh
p103
VJJ
p104
tp105
a(Vheat.
p106
VNN
p107
tp108
a(g55
VPRP
p109
tp110
a(Vwas
p111
VVBD
p112
tp113
a(Vdrinking
p114
VVBG
p115
tp116
a(Vplain
p117
VJJ
p118
tp119
a(Vwater
p120
VNN
p121
tp122
a(Vbut
p123
VCC
p124
tp125
a(Vdid
p126
VVBD
p127
tp128
a(g16
VDT
p129
tp130
a(Vlittle
p131
VJJ
p132
tp133
a(Vresearch
p134
VNN
p135
tp136
a(Vand
p137
VCC
p138
tp139
a(Vthought
p140
VNN
p141
tp142
a(Velectrolytes
p143
VNNS
p144
tp145
a(Vmight
p146
VMD
p147
tp148
a(Vbe
p149
VVB
p150
tp151
a(Vthe
p152
VDT
p153
tp154
a(Vissue.
p155
VFW
p156
tp157
a(VGatorade
p158
VFW
p159
tp160
a(Vwasn't
p161
VFW
p162
tp163
a(Van
p164
VDT
p165
tp166
a(Voption
p167
VNN
p168
tp169
a(Vbecause
p170
VIN
p171
tp172
a(Vit
p173
VPRP
p174
tp175
a(Vis
p176
VVBZ
p177
tp178
a(Vso
p179
VRB
p180
tp181
a(Vloaded
p182
VJJ
p183
tp184
a(Vwith
p185
VIN
p186
tp187
a(Vcarbohydrates
p188
VNNS
p189
tp190
a(Vso
p191
VIN
p192
tp193
a(g55
VPRP
p194
tp195
a(Vlooked
p196
VVBD
p197
tp198
a(Varound
p199
VRP
p200
tp201
a(Vfor
p202
VIN
p203
tp204
a(g16
VDT
p205
tp206
a(Vlow-carb
p207
VJJ
p208
tp209
a(Valternative.
p210
VNN
p211
tp212
a(VThe
p213
VDT
p214
tp215
a(V"zero
p216
VNN
p217
tp218
a(Vcarb"
p219
VNN
p220
tp221
a(Vsports
p222
VNNS
p223
tp224
a(Vdrinks
p225
VVBZ
p226
tp227
a(Vdidn't
p228
VNN
p229
tp230
a(Vhelp
p231
VNN
p232
tp233
a(Vso
p234
VIN
p235
tp236
a(Vwhat
p237
VWP
p238
tp239
a(Vto
p240
VTO
p241
tp242
a(Vdo?
p243
VNN
p244
tp245
a(VOne
p246
VCD
p247
tp248
a(Vday
p249
VNN
p250
tp251
a(g55
VPRP
p252
tp253
a(Vran
p254
VVBD
p255
tp256
a(Vacross
p257
VIN
p258
tp259
a(Vthese
p260
VDT
p261
tp262
a(Vat
p263
VIN
p264
tp265
a(Vmy
p266
VPRP$
p267
tp268
a(Vbike
p269
VNN
p270
tp271
a(Vshop
p272
VNN
p273
tp274
a(Vso
p275
VRB
p276
tp277
a(Vtried
p278
VVBD
p279
tp280
a(g16
VDT
p281
tp282
a(Vtube
p283
VNN
p284
tp285
a(Vof
p286
VIN
p287
tp288
a(Vthem.....voila!...problem
p289
VNN
p290
tp291
a(Vsolved!!I've
p292
VNN
p293
tp294
a(Vshared
p295
VVBD
p296
tp297
a(Vthem
p298
VPRP
p299
tp300
a(Vwith
p301
VIN
p302
tp303
a(Vtwo
p304
VCD
p305
tp306
a(Vfriends
p307
VNNS
p308
tp309
a(Vin
p310
VIN
p311
tp312
a(Vparticular
p313
VJJ
p314
tp315
a(Vwhose
p316
VWP$
p317
tp318
a(Vproblems
p319
VNNS
p320
tp321
a(Vwith
p322
VIN
p323
tp324
a(Vleg
p325
VNN
p326
tp327
a(Vcramps
p328
VNNS
p329
tp330
a(Vwere
p331
VVBD
p332
tp333
a(Vresolved
p334
VVBN
p335
tp336
a(Vwhile
p337
VIN
p338
tp339
a(Vusing
p340
VVBG
p341
tp342
a(Vthese.These
p343
VNN
p344
tp345
a(Vguys
p346
VNNS
p347
tp348
a(Vgot
p349
VVBD
p350
tp351
a(Vit
p352
VPRP
p353
tp354
a(Vright
p355
VRB
p356
tp357
a(V--
p358
V:
p359
tp360
a(Vthey
p361
VPRP
p362
tp363
a(Vare
p364
VVBP
p365
tp366
a(Vsuperbly
p367
VRB
p368
tp369
a(Vformulated
p370
VVBN
p371
tp372
a(Vand
p373
VCC
p374
tp375
a(Vsimply
p376
VRB
p377
tp378
a(Vwork.....
p379
VNN
p380
tp381
a.