(lp0
(VI
p1
VPRP
p2
tp3
a(Vhave
p4
VVBP
p5
tp6
a(Vbought
p7
VVBN
p8
tp9
a(Vseveral
p10
VJJ
p11
tp12
a(Vof
p13
VIN
p14
tp15
a(Vthe
p16
VDT
p17
tp18
a(VVitality
p19
VNN
p20
tp21
a(Vcanned
p22
VVBD
p23
tp24
a(Vdog
p25
VNN
p26
tp27
a(Vfood
p28
VNN
p29
tp30
a(Vproducts
p31
VNNS
p32
tp33
a(Vand
p34
VCC
p35
tp36
a(Vhave
p37
VVBP
p38
tp39
a(Vfound
p40
VVBN
p41
tp42
a(Vthem
p43
VPRP
p44
tp45
a(Vall
p46
VDT
p47
tp48
a(Vto
p49
VTO
p50
tp51
a(Vbe
p52
VVB
p53
tp54
a(Vof
p55
VIN
p56
tp57
a(Vgood
p58
VJJ
p59
tp60
a(Vquality.
p61
VNN
p62
tp63
a(VThe
p64
VDT
p65
tp66
a(Vproduct
p67
VNN
p68
tp69
a(Vlooks
p70
VVBZ
p71
tp72
a(Vmore
p73
VJJR
p74
tp75
a(Vlike
p76
VIN
p77
tp78
a(Va
p79
VDT
p80
tp81
a(Vstew
p82
VNN
p83
tp84
a(Vthan
p85
VIN
p86
tp87
a(g79
VDT
p88
tp89
a(Vprocessed
p90
VVBN
p91
tp92
a(Vmeat
p93
VNN
p94
tp95
a(Vand
p96
VCC
p97
tp98
a(Vit
p99
VPRP
p100
tp101
a(Vsmells
p102
VVBZ
p103
tp104
a(Vbetter.
p105
VNNP
p106
tp107
a(VMy
p108
VNNP
p109
tp110
a(VLabrador
p111
VNNP
p112
tp113
a(Vis
p114
VVBZ
p115
tp116
a(Vfinicky
p117
VJJ
p118
tp119
a(Vand
p120
VCC
p121
tp122
a(Vshe
p123
VPRP
p124
tp125
a(Vappreciates
p126
VVBZ
p127
tp128
a(Vthis
p129
VDT
p130
tp131
a(Vproduct
p132
VNN
p133
tp134
a(Vbetter
p135
VRBR
p136
tp137
a(Vthan
p138
VIN
p139
tp140
a(Vmost.
p141
VNN
p142
tp143
a.