(lp0
(VI
p1
VPRP
p2
tp3
a(Vfed
p4
VVBD
p5
tp6
a(Vthis
p7
VDT
p8
tp9
a(Vto
p10
VTO
p11
tp12
a(Vmy
p13
VPRP$
p14
tp15
a(VGolden
p16
VNNP
p17
tp18
a(VRetriever
p19
VNNP
p20
tp21
a(Vand
p22
VCC
p23
tp24
a(Vhe
p25
VPRP
p26
tp27
a(Vhated
p28
VVBD
p29
tp30
a(Vit.
p31
VFW
p32
tp33
a(VHe
p34
VPRP
p35
tp36
a(Vwouldn't
p37
VRB
p38
tp39
a(Veat
p40
VVBP
p41
tp42
a(Vit,
p43
VNN
p44
tp45
a(Vand
p46
VCC
p47
tp48
a(Vwhen
p49
VWRB
p50
tp51
a(Vhe
p52
VPRP
p53
tp54
a(Vdid,
p55
VVBD
p56
tp57
a(Vit
p58
VPRP
p59
tp60
a(Vgave
p61
VVBD
p62
tp63
a(Vhim
p64
VPRP
p65
tp66
a(Vterrible
p67
VJJ
p68
tp69
a(Vdiarrhea.
p70
VNN
p71
tp72
a(VWe
p73
VPRP
p74
tp75
a(Vwill
p76
VMD
p77
tp78
a(Vnot
p79
VRB
p80
tp81
a(Vbe
p82
VVB
p83
tp84
a(Vbuying
p85
VVBG
p86
tp87
a(Vthis
p88
VDT
p89
tp90
a(Vagain.
p91
VFW
p92
tp93
a(VIt's
p94
VFW
p95
tp96
a(Valso
p97
VRB
p98
tp99
a(Vsuper
p100
VJJ
p101
tp102
a(Vexpensive.
p103
VNN
p104
tp105
a.