(lp0
(VThis
p1
VDT
p2
tp3
a(Vseems
p4
VVBZ
p5
tp6
a(Va
p7
VDT
p8
tp9
a(Vlittle
p10
VRB
p11
tp12
a(Vmore
p13
VRBR
p14
tp15
a(Vwholesome
p16
VJJ
p17
tp18
a(Vthan
p19
VIN
p20
tp21
a(Vsome
p22
VDT
p23
tp24
a(Vof
p25
VIN
p26
tp27
a(Vthe
p28
VDT
p29
tp30
a(Vsupermarket
p31
VNN
p32
tp33
a(Vbrands,
p34
VNN
p35
tp36
a(Vbut
p37
VCC
p38
tp39
a(Vit
p40
VPRP
p41
tp42
a(Vis
p43
VVBZ
p44
tp45
a(Vsomewhat
p46
VRB
p47
tp48
a(Vmushy
p49
VJJ
p50
tp51
a(Vand
p52
VCC
p53
tp54
a(Vdoesn't
p55
VNN
p56
tp57
a(Vhave
p58
VVBP
p59
tp60
a(Vquite
p61
VRB
p62
tp63
a(Vas
p64
VRB
p65
tp66
a(Vmuch
p67
VJJ
p68
tp69
a(Vflavor
p70
VNN
p71
tp72
a(Veither.
p73
VNN
p74
tp75
a(VIt
p76
VPRP
p77
tp78
a(Vdidn't
p79
VVBP
p80
tp81
a(Vpass
p82
VNN
p83
tp84
a(Vmuster
p85
VNN
p86
tp87
a(Vwith
p88
VIN
p89
tp90
a(Vmy
p91
VPRP$
p92
tp93
a(Vkids,
p94
VNN
p95
tp96
a(Vso
p97
VIN
p98
tp99
a(VI
p100
VPRP
p101
tp102
a(Vprobably
p103
VRB
p104
tp105
a(Vwon't
p106
VVBP
p107
tp108
a(Vbuy
p109
VVB
p110
tp111
a(Vit
p112
VPRP
p113
tp114
a(Vagain.
p115
VFW
p116
tp117
a.