(lp0
(VI
p1
VPRP
p2
tp3
a(Vcan
p4
VMD
p5
tp6
a(Vremember
p7
VVB
p8
tp9
a(Vbuying
p10
VVBG
p11
tp12
a(Vthis
p13
VDT
p14
tp15
a(Vcandy
p16
VNN
p17
tp18
a(Vas
p19
VIN
p20
tp21
a(Va
p22
VDT
p23
tp24
a(Vkid
p25
VNN
p26
tp27
a(Vand
p28
VCC
p29
tp30
a(Vthe
p31
VDT
p32
tp33
a(Vquality
p34
VNN
p35
tp36
a(Vhasn't
p37
VNN
p38
tp39
a(Vdropped
p40
VVBD
p41
tp42
a(Vin
p43
VIN
p44
tp45
a(Vall
p46
VDT
p47
tp48
a(Vthese
p49
VDT
p50
tp51
a(Vyears.
p52
VNNS
p53
tp54
a(VStill
p55
VRB
p56
tp57
a(g22
VDT
p58
tp59
a(Vsuperb
p60
VJJ
p61
tp62
a(Vproduct
p63
VNN
p64
tp65
a(Vyou
p66
VPRP
p67
tp68
a(Vwon't
p69
VVBP
p70
tp71
a(Vbe
p72
VVB
p73
tp74
a(Vdisappointed
p75
VJJ
p76
tp77
a(Vwith.
p78
VNN
p79
tp80
a.