(lp0
(VI
p1
VPRP
p2
tp3
a(Vgot
p4
VVBD
p5
tp6
a(Va
p7
VDT
p8
tp9
a(Vwild
p10
VJJ
p11
tp12
a(Vhair
p13
VNN
p14
tp15
a(Vfor
p16
VIN
p17
tp18
a(Vtaffy
p19
VNN
p20
tp21
a(Vand
p22
VCC
p23
tp24
a(Vordered
p25
VVBD
p26
tp27
a(Vthis
p28
VDT
p29
tp30
a(Vfive
p31
VCD
p32
tp33
a(Vpound
p34
VNN
p35
tp36
a(Vbag.
p37
VNN
p38
tp39
a(VThe
p40
VDT
p41
tp42
a(Vtaffy
p43
VNN
p44
tp45
a(Vwas
p46
VVBD
p47
tp48
a(Vall
p49
VDT
p50
tp51
a(Vvery
p52
VRB
p53
tp54
a(Venjoyable
p55
VJJ
p56
tp57
a(Vwith
p58
VIN
p59
tp60
a(Vmany
p61
VJJ
p62
tp63
a(Vflavors:
p64
VFW
p65
tp66
a(Vwatermelon,
p67
VFW
p68
tp69
a(Vroot
p70
VNN
p71
tp72
a(Vbeer,
p73
VFW
p74
tp75
a(Vmelon,
p76
VFW
p77
tp78
a(Vpeppermint,
p79
VFW
p80
tp81
a(Vgrape,
p82
VFW
p83
tp84
a(Vetc.
p85
VFW
p86
tp87
a(VMy
p88
VPRP$
p89
tp90
a(Vonly
p91
VJJ
p92
tp93
a(Vcomplaint
p94
VNN
p95
tp96
a(Vis
p97
VVBZ
p98
tp99
a(Vthere
p100
VEX
p101
tp102
a(Vwas
p103
VVBD
p104
tp105
a(g7
VDT
p106
tp107
a(Vbit
p108
VNN
p109
tp110
a(Vtoo
p111
VRB
p112
tp113
a(Vmuch
p114
VJJ
p115
tp116
a(Vred/black
p117
VNN
p118
tp119
a(Vlicorice-flavored
p120
VJJ
p121
tp122
a(Vpieces
p123
VNNS
p124
tp125
a(V(just
p126
VVBP
p127
tp128
a(Vnot
p129
VRB
p130
tp131
a(Vmy
p132
VPRP$
p133
tp134
a(Vparticular
p135
VJJ
p136
tp137
a(Vfavorites).
p138
VNN
p139
tp140
a(VBetween
p141
VIN
p142
tp143
a(Vme,
p144
VNN
p145
tp146
a(Vmy
p147
VPRP$
p148
tp149
a(Vkids,
p150
VNN
p151
tp152
a(Vand
p153
VCC
p154
tp155
a(Vmy
p156
VPRP$
p157
tp158
a(Vhusband,
p159
VNN
p160
tp161
a(Vthis
p162
VDT
p163
tp164
a(Vlasted
p165
VVBD
p166
tp167
a(Vonly
p168
VRB
p169
tp170
a(Vtwo
p171
VCD
p172
tp173
a(Vweeks!
p174
VNN
p175
tp176
a(g1
VPRP
p177
tp178
a(Vwould
p179
VMD
p180
tp181
a(Vrecommend
p182
VVB
p183
tp184
a(Vthis
p185
VDT
p186
tp187
a(Vbrand
p188
VNN
p189
tp190
a(Vof
p191
VIN
p192
tp193
a(Vtaffy
p194
VNN
p195
tp196
a(V--
p197
V:
p198
tp199
a(Vit
p200
VPRP
p201
tp202
a(Vwas
p203
VVBD
p204
tp205
a(g7
VDT
p206
tp207
a(Vdelightful
p208
VJJ
p209
tp210
a(Vtreat.
p211
VNN
p212
tp213
a.