(lp0
(VProduct
p1
VNN
p2
tp3
a(Vreceived
p4
VVBD
p5
tp6
a(Vis
p7
VVBZ
p8
tp9
a(Vas
p10
VIN
p11
tp12
a(Vadvertised.Twizzlers,
p13
VFW
p14
tp15
a(VStrawberry,
p16
VFW
p17
tp18
a(V16-Ounce
p19
VNN
p20
tp21
a(VBags
p22
VNNS
p23
tp24
a(V(Pack
p25
VNN
p26
tp27
a(Vof
p28
VIN
p29
tp30
a(V6)
p31
VNN
p32
tp33
a.