(lp0
(VThis
p1
VDT
p2
tp3
a(Vproduct
p4
VNN
p5
tp6
a(Vserves
p7
VVBZ
p8
tp9
a(Vme
p10
VPRP
p11
tp12
a(Vwell
p13
VRB
p14
tp15
a(Vas
p16
VIN
p17
tp18
a(Va
p19
VDT
p20
tp21
a(Vsource
p22
VNN
p23
tp24
a(Vof
p25
VIN
p26
tp27
a(Velectrolytes
p28
VNNS
p29
tp30
a(Vduring
p31
VIN
p32
tp33
a(Vand
p34
VCC
p35
tp36
a(Vafter
p37
VIN
p38
tp39
a(g19
VDT
p40
tp41
a(Vlong
p42
VJJ
p43
tp44
a(Vrun
p45
VNN
p46
tp47
a(Vor
p48
VCC
p49
tp50
a(Vbike
p51
VNN
p52
tp53
a(Vride.I
p54
VNN
p55
tp56
a(Vhave
p57
VVBP
p58
tp59
a(Vtried
p60
VVBN
p61
tp62
a(Vall
p63
VDT
p64
tp65
a(Vof
p66
VIN
p67
tp68
a(Vthe
p69
VDT
p70
tp71
a(Vflavors
p72
VNNS
p73
tp74
a(Vbut
p75
VCC
p76
tp77
a(Vreally
p78
VRB
p79
tp80
a(Vdo
p81
VVBP
p82
tp83
a(Vlike
p84
VIN
p85
tp86
a(Vthe
p87
VDT
p88
tp89
a(Vgrapefruit
p90
VNN
p91
tp92
a(Vflavor...
p93
VNN
p94
tp95
a(Vno
p96
VDT
p97
tp98
a(Vafter-taste
p99
VNN
p100
tp101
a(Vand
p102
VCC
p103
tp104
a(VI
p105
VPRP
p106
tp107
a(Vactually
p108
VRB
p109
tp110
a(Vlike
p111
VIN
p112
tp113
a(Vthe
p114
VDT
p115
tp116
a(Vslight
p117
VJJ
p118
tp119
a(Vcarbonation.I
p120
VNN
p121
tp122
a(Vuse
p123
VNN
p124
tp125
a(Vother
p126
VJJ
p127
tp128
a(VHammer
p129
VNNP
p130
tp131
a(Vproducts
p132
VNNS
p133
tp134
a(Vand
p135
VCC
p136
tp137
a(Vreally
p138
VRB
p139
tp140
a(Vlike
p141
VIN
p142
tp143
a(Vtheir
p144
VPRP$
p145
tp146
a(Vwhole
p147
VJJ
p148
tp149
a(Vproduct
p150
VNN
p151
tp152
a(Vline.
p153
VNN
p154
tp155
a.