(lp0
(VThis
p1
VDT
p2
tp3
a(Vis
p4
VVBZ
p5
tp6
a(Va
p7
VDT
p8
tp9
a(Vgood
p10
VJJ
p11
tp12
a(Vinstant
p13
VNN
p14
tp15
a(Voatmeal
p16
VNN
p17
tp18
a(Vfrom
p19
VIN
p20
tp21
a(Vthe
p22
VDT
p23
tp24
a(Vbest
p25
VJJS
p26
tp27
a(Voatmeal
p28
VNN
p29
tp30
a(Vbrand.
p31
VNN
p32
tp33
a(VIt
p34
VPRP
p35
tp36
a(Vuses
p37
VVBZ
p38
tp39
a(Vcane
p40
VNN
p41
tp42
a(Vsugar
p43
VNN
p44
tp45
a(Vinstead
p46
VRB
p47
tp48
a(Vof
p49
VIN
p50
tp51
a(Vhigh
p52
VJJ
p53
tp54
a(Vfructouse
p55
VNN
p56
tp57
a(Vcorn
p58
VNN
p59
tp60
a(Vsyrup,
p61
VNN
p62
tp63
a(Vso
p64
VRB
p65
tp66
a(Vnot
p67
VRB
p68
tp69
a(Vonly
p70
VRB
p71
tp72
a(Vdoes
p73
VVBZ
p74
tp75
a(Vit
p76
VPRP
p77
tp78
a(Vhave
p79
VVB
p80
tp81
a(g7
VDT
p82
tp83
a(Vbetter
p84
VJJR
p85
tp86
a(Vsweetness,
p87
VNN
p88
tp89
a(Vbut
p90
VCC
p91
tp92
a(Vsome
p93
VDT
p94
tp95
a(Vdoctors
p96
VNNS
p97
tp98
a(Vnow
p99
VRB
p100
tp101
a(Vsay
p102
VVBP
p103
tp104
a(Vthat
p105
VIN
p106
tp107
a(Vthis
p108
VDT
p109
tp110
a(Vform
p111
VNN
p112
tp113
a(Vof
p114
VIN
p115
tp116
a(Vsugar
p117
VNN
p118
tp119
a(Vis
p120
VVBZ
p121
tp122
a(Vbetter
p123
VJJR
p124
tp125
a(Vfor
p126
VIN
p127
tp128
a(Vyou.
p129
VNNP
p130
tp131
a(VGreat
p132
VNNP
p133
tp134
a(Von
p135
VIN
p136
tp137
a(g7
VDT
p138
tp139
a(Vcold
p140
VJJ
p141
tp142
a(Vmorning
p143
VNN
p144
tp145
a(Vwhen
p146
VWRB
p147
tp148
a(Vyou
p149
VPRP
p150
tp151
a(Vdon't
p152
VVBP
p153
tp154
a(Vhave
p155
VVB
p156
tp157
a(Vtime
p158
VNN
p159
tp160
a(Vto
p161
VTO
p162
tp163
a(Vmake
p164
VVB
p165
tp166
a(VMcCann's
p167
VNNP
p168
tp169
a(VSteel
p170
VNNP
p171
tp172
a(VCut
p173
VNNP
p174
tp175
a(VOats.
p176
VNNP
p177
tp178
a(VThe
p179
VNNP
p180
tp181
a(Vapple
p182
VNN
p183
tp184
a(Vcinnamon
p185
VNNP
p186
tp187
a(Vis
p188
VVBZ
p189
tp190
a(Vthe
p191
VDT
p192
tp193
a(Vbest
p194
VJJS
p195
tp196
a(Vbut
p197
VCC
p198
tp199
a(Vthe
p200
VDT
p201
tp202
a(Vmaple
p203
VNN
p204
tp205
a(Vand
p206
VCC
p207
tp208
a(Vbrown
p209
VJJ
p210
tp211
a(Vsugar
p212
VNN
p213
tp214
a(Vor
p215
VCC
p216
tp217
a(Vthe
p218
VDT
p219
tp220
a(Vregular
p221
VNN
p222
tp223
a(Vare
p224
VVBP
p225
tp226
a(Vgood
p227
VJJ
p228
tp229
a(Vtoo.
p230
VNNP
p231
tp232
a(VPlus
p233
VNNP
p234
tp235
a(Vthey
p236
VPRP
p237
tp238
a(Vdon't
p239
VVBP
p240
tp241
a(Vrequire
p242
VVB
p243
tp244
a(Vdoctoring
p245
VNN
p246
tp247
a(Vto
p248
VTO
p249
tp250
a(Vactually
p251
VRB
p252
tp253
a(Vtell
p254
VVB
p255
tp256
a(Vthe
p257
VDT
p258
tp259
a(Vthree
p260
VCD
p261
tp262
a(Vflavors
p263
VNNS
p264
tp265
a(Vapart.
p266
VNN
p267
tp268
a.