(lp0
(VThis
p1
VDT
p2
tp3
a(Vstuff
p4
VNN
p5
tp6
a(Vreally
p7
VRB
p8
tp9
a(Vworks
p10
VVBZ
p11
tp12
a(Vfor
p13
VIN
p14
tp15
a(Vpreventing
p16
VVBG
p17
tp18
a(Vcramping
p19
VNN
p20
tp21
a(Vduring
p22
VIN
p23
tp24
a(Vthe
p25
VDT
p26
tp27
a(Vmiddle
p28
VNN
p29
tp30
a(Vto
p31
VTO
p32
tp33
a(Vlatter
p34
VJJ
p35
tp36
a(Vstages
p37
VNNS
p38
tp39
a(Vof
p40
VIN
p41
tp42
a(Vyour
p43
VPRP$
p44
tp45
a(Vrides.
p46
VNN
p47
tp48
a(VPop
p49
VNN
p50
tp51
a(V1
p52
VCD
p53
tp54
a(Vinto
p55
VIN
p56
tp57
a(Veach
p58
VDT
p59
tp60
a(Vwater
p61
VNN
p62
tp63
a(Vbottle
p64
VNN
p65
tp66
a(Vand
p67
VCC
p68
tp69
a(Vyou're
p70
VFW
p71
tp72
a(Vset.
p73
VFW
p74
tp75
a(VFlavor
p76
VNN
p77
tp78
a(Vis
p79
VVBZ
p80
tp81
a(Vfine
p82
VJJ
p83
tp84
a(Vand
p85
VCC
p86
tp87
a(Vgoes
p88
VVBZ
p89
tp90
a(Vdown
p91
VRP
p92
tp93
a(Veasy.
p94
VNN
p95
tp96
a.