(lp0
(VI
p1
VPRP
p2
tp3
a(Vhave
p4
VVBP
p5
tp6
a(Vused
p7
VVBN
p8
tp9
a(Vthe
p10
VDT
p11
tp12
a(Vendurolyte
p13
VNN
p14
tp15
a(Vproduct
p16
VNN
p17
tp18
a(Vfor
p19
VIN
p20
tp21
a(Vseveral
p22
VJJ
p23
tp24
a(Vyears
p25
VNNS
p26
tp27
a(Vin
p28
VIN
p29
tp30
a(Vboth
p31
VCC
p32
tp33
a(Vpill
p34
VNN
p35
tp36
a(Vand
p37
VCC
p38
tp39
a(Vpowder
p40
VNN
p41
tp42
a(Vform.
p43
VNN
p44
tp45
a(VLong
p46
VJJ
p47
tp48
a(Vdesert
p49
VNN
p50
tp51
a(Vrides
p52
VNNS
p53
tp54
a(Von
p55
VIN
p56
tp57
a(Vthe
p58
VDT
p59
tp60
a(Vdirt
p61
VNN
p62
tp63
a(Vbike
p64
VNN
p65
tp66
a(Valways
p67
VRB
p68
tp69
a(Vfound
p70
VVBD
p71
tp72
a(Vmy
p73
VPRP$
p74
tp75
a(Vcamelbak
p76
VNN
p77
tp78
a(Vwater
p79
VNN
p80
tp81
a(Vheavily
p82
VRB
p83
tp84
a(Vlaced
p85
VVBD
p86
tp87
a(Vwith
p88
VIN
p89
tp90
a(Vthe
p91
VDT
p92
tp93
a(Vendurolyte
p94
VFW
p95
tp96
a(Vpowder,
p97
VFW
p98
tp99
a(Vnot
p100
VRB
p101
tp102
a(Voverly
p103
VRB
p104
tp105
a(Vtasty,
p106
VJJ
p107
tp108
a(Vbut
p109
VCC
p110
tp111
a(Vquite
p112
VRB
p113
tp114
a(Veffective,
p115
VJJ
p116
tp117
a(Vas
p118
VIN
p119
tp120
a(g1
VPRP
p121
tp122
a(Vnever
p123
VRB
p124
tp125
a(Vgot
p126
VVBD
p127
tp128
a(Va
p129
VDT
p130
tp131
a(Vcramp
p132
VNN
p133
tp134
a(Von
p135
VIN
p136
tp137
a(Vthese
p138
VDT
p139
tp140
a(Vseveral
p141
VJJ
p142
tp143
a(Vhundred
p144
VCD
p145
tp146
a(Vmile
p147
VNN
p148
tp149
a(Vrides.
p150
VNN
p151
tp152
a(VSame
p153
VJJ
p154
tp155
a(Vfor
p156
VIN
p157
tp158
a(Vdesert
p159
VNN
p160
tp161
a(Vracing
p162
VNN
p163
tp164
a(Vin
p165
VIN
p166
tp167
a(Vthe
p168
VDT
p169
tp170
a(Vbuggy,
p171
VNN
p172
tp173
a(Vthe
p174
VDT
p175
tp176
a(Vcamelbaks
p177
VNNS
p178
tp179
a(Vwere
p180
VVBD
p181
tp182
a(Valways
p183
VRB
p184
tp185
a(Vlaced
p186
VVBN
p187
tp188
a(Vwith
p189
VIN
p190
tp191
a(Vthe
p192
VDT
p193
tp194
a(Vpowder.
p195
VNNP
p196
tp197
a(VNow
p198
VNNP
p199
tp200
a(Vwe
p201
VPRP
p202
tp203
a(Vhave
p204
VVBP
p205
tp206
a(Vthe
p207
VDT
p208
tp209
a(VFizz...what
p210
VNN
p211
tp212
a(g129
VDT
p213
tp214
a(Vgreat
p215
VJJ
p216
tp217
a(Vproduct!
p218
VFW
p219
tp220
a(VFirstly,
p221
VFW
p222
tp223
a(Vits
p224
VPRP$
p225
tp226
a(VHammer's
p227
VFW
p228
tp229
a(Vendurolyte
p230
VFW
p231
tp232
a(Vproduct
p233
VNN
p234
tp235
a(Vso
p236
VIN
p237
tp238
a(Vit's
p239
VFW
p240
tp241
a(Vgreat,
p242
VFW
p243
tp244
a(Vendurance
p245
VJJ
p246
tp247
a(Vathlete's
p248
VNNS
p249
tp250
a(Vthe
p251
VDT
p252
tp253
a(Vworld
p254
VNN
p255
tp256
a(Vover
p257
VIN
p258
tp259
a(Vuse
p260
VNN
p261
tp262
a(Vtheir
p263
VPRP$
p264
tp265
a(Vproducts.
p266
VNNP
p267
tp268
a(VSecond
p269
VNNP
p270
tp271
a(Vits
p272
VPRP$
p273
tp274
a(Vconvenient,
p275
VNN
p276
tp277
a(Vhandly
p278
VNN
p279
tp280
a(Vtablets
p281
VNNS
p282
tp283
a(Vthat
p284
VWDT
p285
tp286
a(Vdissovle
p287
VVBP
p288
tp289
a(Vin
p290
VIN
p291
tp292
a(g129
VDT
p293
tp294
a(Vfizz.
p295
VNNP
p296
tp297
a(VThird
p298
VNNP
p299
tp300
a(Vit
p301
VPRP
p302
tp303
a(Vtastes
p304
VVBZ
p305
tp306
a(Vgreat!
p307
VNN
p308
tp309
a(VImagine
p310
VVB
p311
tp312
a(Vgetting
p313
VVBG
p314
tp315
a(g129
VDT
p316
tp317
a(Vnice
p318
VJJ
p319
tp320
a(Vcool
p321
VJJ
p322
tp323
a(Vdrink
p324
VNN
p325
tp326
a(Vwhen
p327
VWRB
p328
tp329
a(Vyour
p330
VPRP$
p331
tp332
a(Vbody
p333
VNN
p334
tp335
a(Vis
p336
VVBZ
p337
tp338
a(Vstarving
p339
VVBG
p340
tp341
a(Vfor
p342
VIN
p343
tp344
a(Vhydration
p345
VNN
p346
tp347
a(Vand
p348
VCC
p349
tp350
a(Velectrolytes
p351
VNNS
p352
tp353
a(Vand
p354
VCC
p355
tp356
a(Vrather
p357
VRB
p358
tp359
a(Vthan
p360
VIN
p361
tp362
a(Vgetting
p363
VVBG
p364
tp365
a(g129
VDT
p366
tp367
a(V"salty"
p368
VFW
p369
tp370
a(Vtaste,
p371
VFW
p372
tp373
a(Vyou
p374
VPRP
p375
tp376
a(Vget
p377
VVBP
p378
tp379
a(g129
VDT
p380
tp381
a(Vrefreshing
p382
VJJ
p383
tp384
a(Vlemon-lime
p385
VJJ
p386
tp387
a(Vor
p388
VCC
p389
tp390
a(Vmango!
p391
VFW
p392
tp393
a(VThe
p394
VDT
p395
tp396
a(Vcamelbaks
p397
VNNS
p398
tp399
a(Valways
p400
VRB
p401
tp402
a(Vget
p403
VVBP
p404
tp405
a(Vthe
p406
VDT
p407
tp408
a(VFizz
p409
VFW
p410
tp411
a(Vnow.
p412
VFW
p413
tp414
a(g1
VPRP
p415
tp416
a(Valso
p417
VRB
p418
tp419
a(Vdrop
p420
VVBP
p421
tp422
a(g129
VDT
p423
tp424
a(Vtablet
p425
VNN
p426
tp427
a(Vin
p428
VIN
p429
tp430
a(Vmy
p431
VPRP$
p432
tp433
a(Vbottled
p434
VJJ
p435
tp436
a(Vwater
p437
VNN
p438
tp439
a(Vwhenever
p440
VWRB
p441
tp442
a(g1
VPRP
p443
tp444
a(Vexercise
p445
VVBP
p446
tp447
a(Vand
p448
VCC
p449
tp450
a(Vhave
p451
VVBP
p452
tp453
a(g129
VDT
p454
tp455
a(Vnice
p456
VJJ
p457
tp458
a(Vflavored
p459
VJJ
p460
tp461
a(Vwater
p462
VNN
p463
tp464
a(Vchock
p465
VNN
p466
tp467
a(Vfull
p468
VJJ
p469
tp470
a(Vof
p471
VIN
p472
tp473
a(Velectrolytes.
p474
VNN
p475
tp476
a(g1
VPRP
p477
tp478
a(Vcannot
p479
VVBP
p480
tp481
a(Vrecommend
p482
VVB
p483
tp484
a(Vthis
p485
VDT
p486
tp487
a(Vproduct
p488
VNN
p489
tp490
a(Vor
p491
VCC
p492
tp493
a(Vany
p494
VDT
p495
tp496
a(Vhammer
p497
VNN
p498
tp499
a(Vproduct
p500
VNN
p501
tp502
a(Vhighly
p503
VRB
p504
tp505
a(Venough.
p506
VJJ
p507
tp508
a.