(lp0
(VMy
p1
VPRP$
p2
tp3
a(Vdog
p4
VNN
p5
tp6
a(Vhas
p7
VVBZ
p8
tp9
a(Va
p10
VDT
p11
tp12
a(Vton
p13
VNN
p14
tp15
a(Vof
p16
VIN
p17
tp18
a(Vallergies
p19
VNNS
p20
tp21
a(Vboth
p22
VCC
p23
tp24
a(Venvironmental
p25
VJJ
p26
tp27
a(Vand
p28
VCC
p29
tp30
a(Vfood.
p31
VJJ
p32
tp33
a(VShe
p34
VNN
p35
tp36
a(Vwas
p37
VVBD
p38
tp39
a(Von
p40
VIN
p41
tp42
a(g10
VDT
p43
tp44
a(Vprescription
p45
VNN
p46
tp47
a(Vdog
p48
VNN
p49
tp50
a(Vfood
p51
VNN
p52
tp53
a(Vbefore
p54
VIN
p55
tp56
a(Vwe
p57
VPRP
p58
tp59
a(Vhad
p60
VVBD
p61
tp62
a(Vher
p63
VPRP
p64
tp65
a(Vtested
p66
VVBN
p67
tp68
a(Vto
p69
VTO
p70
tp71
a(Vsee
p72
VVB
p73
tp74
a(Vwhat
p75
VWP
p76
tp77
a(Vallergies
p78
VNNS
p79
tp80
a(Vshe
p81
VPRP
p82
tp83
a(Vhas.
p84
VVBP
p85
tp86
a(VAfter
p87
VIN
p88
tp89
a(Vwe
p90
VPRP
p91
tp92
a(Vgot
p93
VVBD
p94
tp95
a(Vthe
p96
VDT
p97
tp98
a(Vtest
p99
VNN
p100
tp101
a(Vback,
p102
VNN
p103
tp104
a(Vwe
p105
VPRP
p106
tp107
a(Vlearned
p108
VVBD
p109
tp110
a(Vshe
p111
VPRP
p112
tp113
a(Vwas
p114
VVBD
p115
tp116
a(Vallergic
p117
VJJ
p118
tp119
a(Vto
p120
VTO
p121
tp122
a(Vsomething
p123
VNN
p124
tp125
a(Vin
p126
VIN
p127
tp128
a(Vthe
p129
VDT
p130
tp131
a(Vprescription
p132
VNN
p133
tp134
a(Vbrand.
p135
VNN
p136
tp137
a(VSo
p138
VIN
p139
tp140
a(VI
p141
VPRP
p142
tp143
a(Vfinally
p144
VRB
p145
tp146
a(Vfound
p147
VVBD
p148
tp149
a(Vthis
p150
VDT
p151
tp152
a(Vdog
p153
VNN
p154
tp155
a(Vfood
p156
VNN
p157
tp158
a(Vand
p159
VCC
p160
tp161
a(Vshe
p162
VPRP
p163
tp164
a(Vhas
p165
VVBZ
p166
tp167
a(Vdone
p168
VVBN
p169
tp170
a(Vso
p171
VRB
p172
tp173
a(Vwell
p174
VRB
p175
tp176
a(Von
p177
VIN
p178
tp179
a(Vthis!
p180
VNN
p181
tp182
a(VShe
p183
VNN
p184
tp185
a(Vstill
p186
VRB
p187
tp188
a(Vhas
p189
VVBZ
p190
tp191
a(Vher
p192
VPRP$
p193
tp194
a(Venvironmental
p195
VJJ
p196
tp197
a(Vtriggers,
p198
VNN
p199
tp200
a(Vbut
p201
VCC
p202
tp203
a(g141
VPRP
p204
tp205
a(Vam
p206
VVBP
p207
tp208
a(Vhappy
p209
VJJ
p210
tp211
a(Vshe
p212
VPRP
p213
tp214
a(Vcan
p215
VMD
p216
tp217
a(Vfinally
p218
VRB
p219
tp220
a(Veat
p221
VVB
p222
tp223
a(Vsomething
p224
VNN
p225
tp226
a(g141
VPRP
p227
tp228
a(Vknow
p229
VVBP
p230
tp231
a(Vwon't
p232
VNN
p233
tp234
a(Vcause
p235
VVB
p236
tp237
a(Vher
p238
VPRP$
p239
tp240
a(Vpain.
p241
VNN
p242
tp243
a.