(lp0
(VIt
p1
VPRP
p2
tp3
a(Vis
p4
VVBZ
p5
tp6
a(Vokay.
p7
VNN
p8
tp9
a(VI
p10
VPRP
p11
tp12
a(Vwould
p13
VMD
p14
tp15
a(Vnot
p16
VRB
p17
tp18
a(Vgo
p19
VVB
p20
tp21
a(Vout
p22
VIN
p23
tp24
a(Vof
p25
VIN
p26
tp27
a(Vmy
p28
VPRP$
p29
tp30
a(Vway
p31
VNN
p32
tp33
a(Vto
p34
VTO
p35
tp36
a(Vbuy
p37
VVB
p38
tp39
a(Vit
p40
VPRP
p41
tp42
a(Vagain
p43
VRB
p44
tp45
a.