(lp0
(VMy
p1
VPRP$
p2
tp3
a(Vgolden
p4
VJJ
p5
tp6
a(Vretriever
p7
VNN
p8
tp9
a(Vis
p10
VVBZ
p11
tp12
a(Vone
p13
VCD
p14
tp15
a(Vof
p16
VIN
p17
tp18
a(Vthe
p19
VDT
p20
tp21
a(Vmost
p22
VRBS
p23
tp24
a(Vpicky
p25
VJJ
p26
tp27
a(Vdogs
p28
VNNS
p29
tp30
a(VI've
p31
VVBP
p32
tp33
a(Vever
p34
VRB
p35
tp36
a(Vmet.
p37
VJJ
p38
tp39
a(VAfter
p40
VIN
p41
tp42
a(Vexperimenting
p43
VVBG
p44
tp45
a(Vwith
p46
VIN
p47
tp48
a(Vvarious
p49
VJJ
p50
tp51
a(Vtypes
p52
VNNS
p53
tp54
a(Vof
p55
VIN
p56
tp57
a(Vfood,
p58
VNN
p59
tp60
a(VI
p61
VPRP
p62
tp63
a(Vhave
p64
VVBP
p65
tp66
a(Vfound
p67
VVBN
p68
tp69
a(Vshe
p70
VPRP
p71
tp72
a(Vloves
p73
VVBZ
p74
tp75
a(Vnatural
p76
VJJ
p77
tp78
a(Vbalance.
p79
VNN
p80
tp81
a(VWhat
p82
VWP
p83
tp84
a(g61
VPRP
p85
tp86
a(Vreally
p87
VRB
p88
tp89
a(Vlike
p90
VVBP
p91
tp92
a(Vabout
p93
VIN
p94
tp95
a(Vnatural
p96
VJJ
p97
tp98
a(Vbalance
p99
VNN
p100
tp101
a(Vis
p102
VVBZ
p103
tp104
a(Vthe
p105
VDT
p106
tp107
a(Vfact
p108
VNN
p109
tp110
a(Vthat
p111
VIN
p112
tp113
a(Vit
p114
VPRP
p115
tp116
a(Vhas
p117
VVBZ
p118
tp119
a(Vmultiple
p120
VJJ
p121
tp122
a(Vflavors
p123
VNNS
p124
tp125
a(Vin
p126
VIN
p127
tp128
a(Vdry
p129
VJJ
p130
tp131
a(Vand
p132
VCC
p133
tp134
a(Vwet
p135
VJJ
p136
tp137
a(Vvarieties.
p138
VNN
p139
tp140
a(g61
VPRP
p141
tp142
a(Vmix
p143
VVBP
p144
tp145
a(Vher
p146
VPRP$
p147
tp148
a(Vdry
p149
VJJ
p150
tp151
a(Vfood
p152
VNN
p153
tp154
a(Vwith
p155
VIN
p156
tp157
a(Va
p158
VDT
p159
tp160
a(Vlittle
p161
VJJ
p162
tp163
a(Vwet
p164
VJJ
p165
tp166
a(Vfood
p167
VNN
p168
tp169
a(Vand
p170
VCC
p171
tp172
a(Vmy
p173
VPRP$
p174
tp175
a(Vgolden
p176
VJJ
p177
tp178
a(Vloves
p179
VVBZ
p180
tp181
a(Vit.
p182
VFW
p183
tp184
a(VFurthermore,
p185
VFW
p186
tp187
a(g61
VPRP
p188
tp189
a(Vdo
p190
VVBP
p191
tp192
a(Vlike
p193
VIN
p194
tp195
a(Vmixing
p196
VVBG
p197
tp198
a(Vup
p199
VRP
p200
tp201
a(Vthe
p202
VDT
p203
tp204
a(Vflavors
p205
VNNS
p206
tp207
a(Veach
p208
VDT
p209
tp210
a(Vtime
p211
VNN
p212
tp213
a(Vas
p214
VIN
p215
tp216
a(g61
VPRP
p217
tp218
a(Vthink
p219
VVBP
p220
tp221
a(Vthe
p222
VDT
p223
tp224
a(Vsame
p225
VJJ
p226
tp227
a(Vmeal
p228
VNN
p229
tp230
a(Vday
p231
VNN
p232
tp233
a(Vover
p234
VIN
p235
tp236
a(Vday
p237
VNN
p238
tp239
a(Vmight
p240
VMD
p241
tp242
a(Vget
p243
VVB
p244
tp245
a(g158
VDT
p246
tp247
a(Vlittle
p248
VJJ
p249
tp250
a(Vboring,
p251
VNN
p252
tp253
a(Vso
p254
VIN
p255
tp256
a(g61
VPRP
p257
tp258
a(Vfigured
p259
VVBD
p260
tp261
a(Vwhy
p262
VWRB
p263
tp264
a(Vnot.
p265
VNN
p266
tp267
a(g61
VPRP
p268
tp269
a(Vtend
p270
VVBP
p271
tp272
a(Vto
p273
VTO
p274
tp275
a(Vstay
p276
VVB
p277
tp278
a(Vaway
p279
VRB
p280
tp281
a(Vfrom
p282
VIN
p283
tp284
a(Vthe
p285
VDT
p286
tp287
a(Vfish
p288
VNN
p289
tp290
a(Vtype
p291
VNN
p292
tp293
a(Vthough
p294
VIN
p295
tp296
a(Vas
p297
VIN
p298
tp299
a(Vit
p300
VPRP
p301
tp302
a(Vsmells...Additionally,
p303
VNN
p304
tp305
a(g61
VPRP
p306
tp307
a(Vstarted
p308
VVBD
p309
tp310
a(Vpurchasing
p311
VVBG
p312
tp313
a(Voff
p314
VRP
p315
tp316
a(VAmazon
p317
VNNP
p318
tp319
a(Vbecause
p320
VIN
p321
tp322
a(VPetco
p323
VNNP
p324
tp325
a(Vdidn't
p326
VNNP
p327
tp328
a(Vhave
p329
VVBP
p330
tp331
a(Vthe
p332
VDT
p333
tp334
a(Vwet
p335
VJJ
p336
tp337
a(Vfood
p338
VNN
p339
tp340
a(Vbox
p341
VNN
p342
tp343
a(Vand
p344
VCC
p345
tp346
a(Vonly
p347
VRB
p348
tp349
a(Vhad
p350
VVBD
p351
tp352
a(g158
VDT
p353
tp354
a(Vcouple
p355
VNN
p356
tp357
a(Vof
p358
VIN
p359
tp360
a(Vcans.
p361
VNN
p362
tp363
a(g61
VPRP
p364
tp365
a(Vcame
p366
VVBD
p367
tp368
a(Vhome
p369
VNN
p370
tp371
a(Vand
p372
VCC
p373
tp374
a(Vto
p375
VTO
p376
tp377
a(Vmy
p378
VPRP$
p379
tp380
a(Vsurprise
p381
VNN
p382
tp383
a(Vrealized
p384
VVBD
p385
tp386
a(Vthat
p387
VIN
p388
tp389
a(g61
VPRP
p390
tp391
a(Vcould
p392
VMD
p393
tp394
a(Vsave
p395
VVB
p396
tp397
a(V$20
p398
VCD
p399
tp400
a(Veach
p401
VDT
p402
tp403
a(Vtime
p404
VNN
p405
tp406
a(g61
VPRP
p407
tp408
a(Vbought
p409
VVBD
p410
tp411
a(Vdog
p412
VNN
p413
tp414
a(Vfood
p415
VNN
p416
tp417
a(Vif
p418
VIN
p419
tp420
a(g61
VPRP
p421
tp422
a(Vjust
p423
VRB
p424
tp425
a(Vbuy
p426
VVBP
p427
tp428
a(Vit
p429
VPRP
p430
tp431
a(Voff
p432
VRP
p433
tp434
a(VAmazon.All
p435
VNN
p436
tp437
a(Vin
p438
VIN
p439
tp440
a(Vall,
p441
VNN
p442
tp443
a(g61
VPRP
p444
tp445
a(Vdefinitely
p446
VRB
p447
tp448
a(Vrecommend
p449
VVB
p450
tp451
a(Vand
p452
VCC
p453
tp454
a(Vgive
p455
VVB
p456
tp457
a(Vmy
p458
VPRP$
p459
tp460
a(Vstamp
p461
VNN
p462
tp463
a(Vof
p464
VIN
p465
tp466
a(Vapproval
p467
VNN
p468
tp469
a(Vto
p470
VTO
p471
tp472
a(Vnatural
p473
VJJ
p474
tp475
a(Vbalance
p476
VNN
p477
tp478
a(Vdog
p479
VNN
p480
tp481
a(Vfood.
p482
VNN
p483
tp484
a(VWhile
p485
VIN
p486
tp487
a(g61
VPRP
p488
tp489
a(Vhave
p490
VVBP
p491
tp492
a(Vnever
p493
VRB
p494
tp495
a(Veaten
p496
VVBN
p497
tp498
a(Vit,
p499
VNN
p500
tp501
a(Vmy
p502
VPRP$
p503
tp504
a(Vdog
p505
VNN
p506
tp507
a(Vseems
p508
VVBZ
p509
tp510
a(Vto
p511
VTO
p512
tp513
a(Vlove
p514
VVB
p515
tp516
a(Vit.
p517
VNN
p518
tp519
a.