(lp0
(VI
p1
VPRP
p2
tp3
a(Vam
p4
VVBP
p5
tp6
a(Vvery
p7
VRB
p8
tp9
a(Vsatisfied
p10
VJJ
p11
tp12
a(Vwith
p13
VIN
p14
tp15
a(Vmy
p16
VPRP$
p17
tp18
a(VTwizzler
p19
VFW
p20
tp21
a(Vpurchase.
p22
VFW
p23
tp24
a(g1
VPRP
p25
tp26
a(Vshared
p27
VVBD
p28
tp29
a(Vthese
p30
VDT
p31
tp32
a(Vwith
p33
VIN
p34
tp35
a(Vothers
p36
VNNS
p37
tp38
a(Vand
p39
VCC
p40
tp41
a(Vwe
p42
VPRP
p43
tp44
a(Vhave
p45
VVBP
p46
tp47
a(Vall
p48
VDT
p49
tp50
a(Venjoyed
p51
VVBN
p52
tp53
a(Vthem.
p54
VNN
p55
tp56
a(g1
VPRP
p57
tp58
a(Vwill
p59
VMD
p60
tp61
a(Vdefinitely
p62
VRB
p63
tp64
a(Vbe
p65
VVB
p66
tp67
a(Vordering
p68
VVBG
p69
tp70
a(Vmore.
p71
VNN
p72
tp73
a.