(lp0
(VI
p1
VPRP
p2
tp3
a(Vlove
p4
VVBP
p5
tp6
a(Vthis
p7
VDT
p8
tp9
a(Vcandy.
p10
VNN
p11
tp12
a(VAfter
p13
VIN
p14
tp15
a(Vweight
p16
VNN
p17
tp18
a(Vwatchers
p19
VNNS
p20
tp21
a(g1
VPRP
p22
tp23
a(Vhad
p24
VVBD
p25
tp26
a(Vto
p27
VTO
p28
tp29
a(Vcut
p30
VVB
p31
tp32
a(Vback
p33
VRB
p34
tp35
a(Vbut
p36
VCC
p37
tp38
a(Vstill
p39
VRB
p40
tp41
a(Vhave
p42
VVB
p43
tp44
a(Va
p45
VDT
p46
tp47
a(Vcraving
p48
VNN
p49
tp50
a(Vfor
p51
VIN
p52
tp53
a(Vit.
p54
VNN
p55
tp56
a.