(lp0
(VFor
p1
VIN
p2
tp3
a(Vthose
p4
VDT
p5
tp6
a(Vof
p7
VIN
p8
tp9
a(Vus
p10
VPRP
p11
tp12
a(Vwith
p13
VIN
p14
tp15
a(Vceliac
p16
VJJ
p17
tp18
a(Vdisease
p19
VNN
p20
tp21
a(Vthis
p22
VDT
p23
tp24
a(Vproduct
p25
VNN
p26
tp27
a(Vis
p28
VVBZ
p29
tp30
a(Va
p31
VDT
p32
tp33
a(Vlifesaver
p34
VNN
p35
tp36
a(Vand
p37
VCC
p38
tp39
a(Vwhat
p40
VWP
p41
tp42
a(Vcould
p43
VMD
p44
tp45
a(Vbe
p46
VVB
p47
tp48
a(Vbetter
p49
VJJR
p50
tp51
a(Vthan
p52
VIN
p53
tp54
a(Vgetting
p55
VVBG
p56
tp57
a(Vit
p58
VPRP
p59
tp60
a(Vat
p61
VIN
p62
tp63
a(Valmost
p64
VRB
p65
tp66
a(Vhalf
p67
VPDT
p68
tp69
a(Vthe
p70
VDT
p71
tp72
a(Vprice
p73
VNN
p74
tp75
a(Vof
p76
VIN
p77
tp78
a(Vthe
p79
VDT
p80
tp81
a(Vgrocery
p82
VNN
p83
tp84
a(Vor
p85
VCC
p86
tp87
a(Vhealth
p88
VNN
p89
tp90
a(Vfood
p91
VNN
p92
tp93
a(Vstore!
p94
VNN
p95
tp96
a(VI
p97
VCD
p98
tp99
a(Vlove
p100
VNN
p101
tp102
a(VMcCann's
p103
VNN
p104
tp105
a(Vinstant
p106
VNN
p107
tp108
a(Voatmeal
p109
VNN
p110
tp111
a(V-
p112
V:
p113
tp114
a(Vall
p115
VDT
p116
tp117
a(Vflavors!!!Thanks,Abby
p118
VNN
p119
tp120
a.