(lp0
(Vgood
p1
VJJ
p2
tp3
a(Vflavor!
p4
VNN
p5
tp6
a(Vthese
p7
VDT
p8
tp9
a(Vcame
p10
VVBD
p11
tp12
a(Vsecurely
p13
VRB
p14
tp15
a(Vpacked...
p16
VNN
p17
tp18
a(Vthey
p19
VPRP
p20
tp21
a(Vwere
p22
VVBD
p23
tp24
a(Vfresh
p25
VJJ
p26
tp27
a(Vand
p28
VCC
p29
tp30
a(Vdelicious!
p31
VFW
p32
tp33
a(Vi
p34
VFW
p35
tp36
a(Vlove
p37
VNN
p38
tp39
a(Vthese
p40
VDT
p41
tp42
a(VTwizzlers!
p43
VNN
p44
tp45
a.