(lp0
(VRight
p1
VRB
p2
tp3
a(Vnow
p4
VRB
p5
tp6
a(VI'm
p7
VNN
p8
tp9
a(Vmostly
p10
VRB
p11
tp12
a(Vjust
p13
VRB
p14
tp15
a(Vsprouting
p16
VVBG
p17
tp18
a(Vthis
p19
VDT
p20
tp21
a(Vso
p22
VIN
p23
tp24
a(Vmy
p25
VPRP$
p26
tp27
a(Vcats
p28
VNNS
p29
tp30
a(Vcan
p31
VMD
p32
tp33
a(Veat
p34
VVB
p35
tp36
a(Vthe
p37
VDT
p38
tp39
a(Vgrass.
p40
VNN
p41
tp42
a(VThey
p43
VPRP
p44
tp45
a(Vlove
p46
VVBP
p47
tp48
a(Vit.
p49
VRB
p50
tp51
a(VI
p52
VPRP
p53
tp54
a(Vrotate
p55
VVBP
p56
tp57
a(Vit
p58
VPRP
p59
tp60
a(Varound
p61
VRP
p62
tp63
a(Vwith
p64
VIN
p65
tp66
a(VWheatgrass
p67
VNNP
p68
tp69
a(Vand
p70
VCC
p71
tp72
a(VRye
p73
VNNP
p74
tp75
a(Vtoo
p76
VRB
p77
tp78
a.