(lp0
(VMy
p1
VPRP$
p2
tp3
a(Vshepherd/collie
p4
VNN
p5
tp6
a(Vmix
p7
VNN
p8
tp9
a(Vhas
p10
VVBZ
p11
tp12
a(VIBS.
p13
VVBN
p14
tp15
a(VOur
p16
VPRP$
p17
tp18
a(Vvet
p19
VNN
p20
tp21
a(Vrecommended
p22
VVBD
p23
tp24
a(Va
p25
VDT
p26
tp27
a(Vlimited
p28
VJJ
p29
tp30
a(Vingredient
p31
VNN
p32
tp33
a(Vfood.
p34
VNNP
p35
tp36
a(VThis
p37
VNNP
p38
tp39
a(Vhas
p40
VVBZ
p41
tp42
a(Vreally
p43
VRB
p44
tp45
a(Vhelped
p46
VVBN
p47
tp48
a(Vher
p49
VPRP$
p50
tp51
a(Vsymptoms
p52
VNNS
p53
tp54
a(Vand
p55
VCC
p56
tp57
a(Vshe
p58
VPRP
p59
tp60
a(Vlikes
p61
VVBZ
p62
tp63
a(Vit.
p64
VNNP
p65
tp66
a(VI
p67
VNNP
p68
tp69
a(Vwill
p70
VMD
p71
tp72
a(Valways
p73
VRB
p74
tp75
a(Vbuy
p76
VVB
p77
tp78
a(Vit
p79
VPRP
p80
tp81
a(Vfrom
p82
VIN
p83
tp84
a(VAmazon...it's
p85
VFW
p86
tp87
a(V$10
p88
VFW
p89
tp90
a(Vcheaper
p91
VJJR
p92
tp93
a(Vand
p94
VCC
p95
tp96
a(Vfree
p97
VJJ
p98
tp99
a(Vshipping!
p100
VNN
p101
tp102
a.