(lp0
(VProduct
p1
VNN
p2
tp3
a(Varrived
p4
VVBD
p5
tp6
a(Vlabeled
p7
VVBN
p8
tp9
a(Vas
p10
VIN
p11
tp12
a(VJumbo
p13
VFW
p14
tp15
a(VSalted
p16
VFW
p17
tp18
a(VPeanuts...the
p19
VNN
p20
tp21
a(Vpeanuts
p22
VNNS
p23
tp24
a(Vwere
p25
VVBD
p26
tp27
a(Vactually
p28
VRB
p29
tp30
a(Vsmall
p31
VJJ
p32
tp33
a(Vsized
p34
VVBN
p35
tp36
a(Vunsalted.
p37
VNN
p38
tp39
a(VNot
p40
VRB
p41
tp42
a(Vsure
p43
VJJ
p44
tp45
a(Vif
p46
VIN
p47
tp48
a(Vthis
p49
VDT
p50
tp51
a(Vwas
p52
VVBD
p53
tp54
a(Van
p55
VDT
p56
tp57
a(Verror
p58
VNN
p59
tp60
a(Vor
p61
VCC
p62
tp63
a(Vif
p64
VIN
p65
tp66
a(Vthe
p67
VDT
p68
tp69
a(Vvendor
p70
VNN
p71
tp72
a(Vintended
p73
VVBN
p74
tp75
a(Vto
p76
VTO
p77
tp78
a(Vrepresent
p79
VVB
p80
tp81
a(Vthe
p82
VDT
p83
tp84
a(Vproduct
p85
VNN
p86
tp87
a(Vas
p88
VIN
p89
tp90
a(V"Jumbo".
p91
VNN
p92
tp93
a.