(lp0
(VI
p1
VPRP
p2
tp3
a(Vhave
p4
VVBP
p5
tp6
a(Vlived
p7
VVBN
p8
tp9
a(Vout
p10
VIN
p11
tp12
a(Vof
p13
VIN
p14
tp15
a(Vthe
p16
VDT
p17
tp18
a(VUS
p19
VNNP
p20
tp21
a(Vfor
p22
VIN
p23
tp24
a(Vover
p25
VIN
p26
tp27
a(V7
p28
VCD
p29
tp30
a(Vyrs
p31
VFW
p32
tp33
a(Vnow,
p34
VFW
p35
tp36
a(Vand
p37
VCC
p38
tp39
a(g1
VPRP
p40
tp41
a(Vso
p42
VRB
p43
tp44
a(Vmiss
p45
VVB
p46
tp47
a(Vmy
p48
VPRP$
p49
tp50
a(VTwizzlers!!
p51
VNN
p52
tp53
a(VWhen
p54
VWRB
p55
tp56
a(g1
VPRP
p57
tp58
a(Vgo
p59
VVBP
p60
tp61
a(Vback
p62
VRB
p63
tp64
a(Vto
p65
VTO
p66
tp67
a(Vvisit
p68
VNN
p69
tp70
a(Vor
p71
VCC
p72
tp73
a(Vsomeone
p74
VNN
p75
tp76
a(Vvisits
p77
VNNS
p78
tp79
a(Vme,
p80
VVBP
p81
tp82
a(g1
VPRP
p83
tp84
a(Valways
p85
VRB
p86
tp87
a(Vstock
p88
VNN
p89
tp90
a(Vup.
p91
VNNP
p92
tp93
a(VAll
p94
VNNP
p95
tp96
a(g1
VPRP
p97
tp98
a(Vcan
p99
VMD
p100
tp101
a(Vsay
p102
VVB
p103
tp104
a(Vis
p105
VVBZ
p106
tp107
a(VYUM!Sell
p108
VNN
p109
tp110
a(Vthese
p111
VDT
p112
tp113
a(Vin
p114
VIN
p115
tp116
a(VMexico
p117
VNNP
p118
tp119
a(Vand
p120
VCC
p121
tp122
a(Vyou
p123
VPRP
p124
tp125
a(Vwill
p126
VMD
p127
tp128
a(Vhave
p129
VVB
p130
tp131
a(Va
p132
VDT
p133
tp134
a(Vfaithful
p135
VJJ
p136
tp137
a(Vbuyer,
p138
VNN
p139
tp140
a(Vmore
p141
VRBR
p142
tp143
a(Voften
p144
VRB
p145
tp146
a(Vthan
p147
VIN
p148
tp149
a(VI'm
p150
VNN
p151
tp152
a(Vable
p153
VJJ
p154
tp155
a(Vto
p156
VTO
p157
tp158
a(Vbuy
p159
VVB
p160
tp161
a(Vthem
p162
VPRP
p163
tp164
a(Vright
p165
VJJ
p166
tp167
a(Vnow.
p168
VNN
p169
tp170
a.