(lp0
(VI
p1
VPRP
p2
tp3
a(Vhave
p4
VVBP
p5
tp6
a(Vnever
p7
VRB
p8
tp9
a(Vbeen
p10
VVBN
p11
tp12
a(Va
p13
VDT
p14
tp15
a(Vhuge
p16
VJJ
p17
tp18
a(Vcoffee
p19
VNN
p20
tp21
a(Vfan.
p22
VFW
p23
tp24
a(VHowever,
p25
VFW
p26
tp27
a(Vmy
p28
VPRP$
p29
tp30
a(Vmother
p31
VNN
p32
tp33
a(Vpurchased
p34
VVBD
p35
tp36
a(Vthis
p37
VDT
p38
tp39
a(Vlittle
p40
VJJ
p41
tp42
a(Vmachine
p43
VNN
p44
tp45
a(Vand
p46
VCC
p47
tp48
a(Vtalked
p49
VVBD
p50
tp51
a(Vme
p52
VPRP
p53
tp54
a(Vinto
p55
VIN
p56
tp57
a(Vtrying
p58
VVBG
p59
tp60
a(Vthe
p61
VDT
p62
tp63
a(VLatte
p64
VNNP
p65
tp66
a(VMacciato.
p67
VNNP
p68
tp69
a(VNo
p70
VNNP
p71
tp72
a(VCoffee
p73
VNNP
p74
tp75
a(VShop
p76
VNNP
p77
tp78
a(Vhas
p79
VVBZ
p80
tp81
a(g13
VDT
p82
tp83
a(Vbetter
p84
VJJR
p85
tp86
a(Vone
p87
VCD
p88
tp89
a(Vand
p90
VCC
p91
tp92
a(g1
VPRP
p93
tp94
a(Vlike
p95
VVBP
p96
tp97
a(Vmost
p98
VJJS
p99
tp100
a(Vof
p101
VIN
p102
tp103
a(Vthe
p104
VDT
p105
tp106
a(Vother
p107
VJJ
p108
tp109
a(Vproducts,
p110
VNN
p111
tp112
a(Vtoo
p113
VRB
p114
tp115
a(V(as
p116
VVBZ
p117
tp118
a(g13
VDT
p119
tp120
a(Vusually
p121
VRB
p122
tp123
a(Vnon-coffee
p124
VJJ
p125
tp126
a(Vdrinker!).The
p127
VNN
p128
tp129
a(Vlittle
p130
VJJ
p131
tp132
a(VDolche
p133
VNNP
p134
tp135
a(VGuesto
p136
VNNP
p137
tp138
a(VMachine
p139
VNNP
p140
tp141
a(Vis
p142
VVBZ
p143
tp144
a(Vsuper
p145
VJJ
p146
tp147
a(Veasy
p148
VJJ
p149
tp150
a(Vto
p151
VTO
p152
tp153
a(Vuse
p154
VVB
p155
tp156
a(Vand
p157
VCC
p158
tp159
a(Vprepares
p160
VVBZ
p161
tp162
a(g13
VDT
p163
tp164
a(Vreally
p165
VRB
p166
tp167
a(Vgood
p168
VJJ
p169
tp170
a(VCoffee/Latte/Cappuccino/etc
p171
VNN
p172
tp173
a(Vin
p174
VIN
p175
tp176
a(Vless
p177
VJJR
p178
tp179
a(Vthan
p180
VIN
p181
tp182
a(g13
VDT
p183
tp184
a(Vminute
p185
VJJ
p186
tp187
a(V(if
p188
VNN
p189
tp190
a(Vwater
p191
VNN
p192
tp193
a(Vis
p194
VVBZ
p195
tp196
a(Vheated
p197
VJJ
p198
tp199
a(Vup).
p200
VNN
p201
tp202
a(g1
VPRP
p203
tp204
a(Vwould
p205
VMD
p206
tp207
a(Vrecommend
p208
VVB
p209
tp210
a(Vthe
p211
VDT
p212
tp213
a(VDolce
p214
VNNP
p215
tp216
a(VGusto
p217
VNNP
p218
tp219
a(Vto
p220
VTO
p221
tp222
a(Vanyone.
p223
VVB
p224
tp225
a(VToo
p226
VRB
p227
tp228
a(Vgood
p229
VJJ
p230
tp231
a(Vfor
p232
VIN
p233
tp234
a(Vthe
p235
VDT
p236
tp237
a(Vprice
p238
VNN
p239
tp240
a(Vand
p241
VCC
p242
tp243
a(VI'am
p244
VNN
p245
tp246
a(Vgetting
p247
VVBG
p248
tp249
a(Vone
p250
VCD
p251
tp252
a(Vmyself!
p253
VFW
p254
tp255
a(V:)
p256
VFW
p257
tp258
a.