(lp0
(VThis
p1
VDT
p2
tp3
a(Voatmeal
p4
VNN
p5
tp6
a(Vis
p7
VVBZ
p8
tp9
a(Vnot
p10
VRB
p11
tp12
a(Vgood.
p13
VVB
p14
tp15
a(VIts
p16
VPRP$
p17
tp18
a(Vmushy,
p19
VNN
p20
tp21
a(Vsoft,
p22
VNN
p23
tp24
a(VI
p25
VCD
p26
tp27
a(Vdon't
p28
VNN
p29
tp30
a(Vlike
p31
VIN
p32
tp33
a(Vit.
p34
VNNP
p35
tp36
a(VQuaker
p37
VNNP
p38
tp39
a(VOats
p40
VNNP
p41
tp42
a(Vis
p43
VVBZ
p44
tp45
a(Vthe
p46
VDT
p47
tp48
a(Vway
p49
VNN
p50
tp51
a(Vto
p52
VTO
p53
tp54
a(Vgo.
p55
VNN
p56
tp57
a.