(lp0
(VThis
p1
VDT
p2
tp3
a(Vsaltwater
p4
VNN
p5
tp6
a(Vtaffy
p7
VNN
p8
tp9
a(Vhad
p10
VVBD
p11
tp12
a(Vgreat
p13
VJJ
p14
tp15
a(Vflavors
p16
VNNS
p17
tp18
a(Vand
p19
VCC
p20
tp21
a(Vwas
p22
VVBD
p23
tp24
a(Vvery
p25
VRB
p26
tp27
a(Vsoft
p28
VJJ
p29
tp30
a(Vand
p31
VCC
p32
tp33
a(Vchewy.
p34
VJJ
p35
tp36
a(VEach
p37
VJJ
p38
tp39
a(Vcandy
p40
VNN
p41
tp42
a(Vwas
p43
VVBD
p44
tp45
a(Vindividually
p46
VRB
p47
tp48
a(Vwrapped
p49
VVBN
p50
tp51
a(Vwell.
p52
VNNP
p53
tp54
a(VNone
p55
VNNP
p56
tp57
a(Vof
p58
VIN
p59
tp60
a(Vthe
p61
VDT
p62
tp63
a(Vcandies
p64
VNNS
p65
tp66
a(Vwere
p67
VVBD
p68
tp69
a(Vstuck
p70
VJJ
p71
tp72
a(Vtogether,
p73
VNN
p74
tp75
a(Vwhich
p76
VWDT
p77
tp78
a(Vdid
p79
VVBD
p80
tp81
a(Vhappen
p82
VVB
p83
tp84
a(Vin
p85
VIN
p86
tp87
a(Vthe
p88
VDT
p89
tp90
a(Vexpensive
p91
VJJ
p92
tp93
a(Vversion,
p94
VNN
p95
tp96
a(VFralinger's.
p97
VNN
p98
tp99
a(VWould
p100
VMD
p101
tp102
a(Vhighly
p103
VRB
p104
tp105
a(Vrecommend
p106
VVB
p107
tp108
a(Vthis
p109
VDT
p110
tp111
a(Vcandy!
p112
VNN
p113
tp114
a(VI
p115
VPRP
p116
tp117
a(Vserved
p118
VVBD
p119
tp120
a(Vit
p121
VPRP
p122
tp123
a(Vat
p124
VIN
p125
tp126
a(Va
p127
VDT
p128
tp129
a(Vbeach-themed
p130
VJJ
p131
tp132
a(Vparty
p133
VNN
p134
tp135
a(Vand
p136
VCC
p137
tp138
a(Veveryone
p139
VNN
p140
tp141
a(Vloved
p142
VVBD
p143
tp144
a(Vit!
p145
VNN
p146
tp147
a.