(lp0
(VThis
p1
VDT
p2
tp3
a(Vis
p4
VVBZ
p5
tp6
a(Vthe
p7
VDT
p8
tp9
a(Vsame
p10
VJJ
p11
tp12
a(Vstuff
p13
VNN
p14
tp15
a(Vyou
p16
VPRP
p17
tp18
a(Vcan
p19
VMD
p20
tp21
a(Vbuy
p22
VVB
p23
tp24
a(Vat
p25
VIN
p26
tp27
a(Vthe
p28
VDT
p29
tp30
a(Vbig
p31
VJJ
p32
tp33
a(Vbox
p34
VNN
p35
tp36
a(Vstores.
p37
VNN
p38
tp39
a(VThere
p40
VEX
p41
tp42
a(Vis
p43
VVBZ
p44
tp45
a(Vnothing
p46
VNN
p47
tp48
a(Vhealthy
p49
VJJ
p50
tp51
a(Vabout
p52
VIN
p53
tp54
a(Vit.
p55
VFW
p56
tp57
a(VIt
p58
VPRP
p59
tp60
a(Vis
p61
VVBZ
p62
tp63
a(Vjust
p64
VRB
p65
tp66
a(Vcarbs
p67
VNNS
p68
tp69
a(Vand
p70
VCC
p71
tp72
a(Vsugars.
p73
VNN
p74
tp75
a(VSave
p76
VVB
p77
tp78
a(Vyour
p79
VPRP$
p80
tp81
a(Vmoney
p82
VNN
p83
tp84
a(Vand
p85
VCC
p86
tp87
a(Vget
p88
VVB
p89
tp90
a(Vsomething
p91
VNN
p92
tp93
a(Vthat
p94
VIN
p95
tp96
a(Vat
p97
VIN
p98
tp99
a(Vleast
p100
VJJS
p101
tp102
a(Vhas
p103
VVBZ
p104
tp105
a(Vsome
p106
VDT
p107
tp108
a(Vtaste.
p109
VNN
p110
tp111
a.