(lp0
(VTwizzlers,
p1
VNNP
p2
tp3
a(VStrawberry
p4
VNNP
p5
tp6
a(Vmy
p7
VPRP$
p8
tp9
a(Vchildhood
p10
VNN
p11
tp12
a(Vfavorite
p13
VJJ
p14
tp15
a(Vcandy,
p16
VNN
p17
tp18
a(Vmade
p19
VVBN
p20
tp21
a(Vin
p22
VIN
p23
tp24
a(VLancaster
p25
VNNP
p26
tp27
a(VPennsylvania
p28
VNNP
p29
tp30
a(Vby
p31
VIN
p32
tp33
a(VY
p34
VNN
p35
tp36
a(V&
p37
VCC
p38
tp39
a(VS
p40
VNNP
p41
tp42
a(VCandies,
p43
VNNP
p44
tp45
a(VInc.
p46
VNNP
p47
tp48
a(Vone
p49
VCD
p50
tp51
a(Vof
p52
VIN
p53
tp54
a(Vthe
p55
VDT
p56
tp57
a(Voldest
p58
VJJS
p59
tp60
a(Vconfectionery
p61
VNN
p62
tp63
a(VFirms
p64
VNNS
p65
tp66
a(Vin
p67
VIN
p68
tp69
a(Vthe
p70
VDT
p71
tp72
a(VUnited
p73
VNNP
p74
tp75
a(VStates,
p76
VNNP
p77
tp78
a(Vnow
p79
VRB
p80
tp81
a(Va
p82
VDT
p83
tp84
a(VSubsidiary
p85
VNN
p86
tp87
a(Vof
p88
VIN
p89
tp90
a(Vthe
p91
VDT
p92
tp93
a(VHershey
p94
VNNP
p95
tp96
a(VCompany,
p97
VNNP
p98
tp99
a(Vthe
p100
VDT
p101
tp102
a(VCompany
p103
VNNP
p104
tp105
a(Vwas
p106
VVBD
p107
tp108
a(Vestablished
p109
VVBN
p110
tp111
a(Vin
p112
VIN
p113
tp114
a(V1845
p115
VCD
p116
tp117
a(Vas
p118
VIN
p119
tp120
a(VYoung
p121
VNNP
p122
tp123
a(Vand
p124
VCC
p125
tp126
a(VSmylie,
p127
VNNP
p128
tp129
a(Vthey
p130
VPRP
p131
tp132
a(Valso
p133
VRB
p134
tp135
a(Vmake
p136
VVBP
p137
tp138
a(VApple
p139
VNNP
p140
tp141
a(VLicorice
p142
VNNP
p143
tp144
a(VTwists,
p145
VNNP
p146
tp147
a(VGreen
p148
VNNP
p149
tp150
a(VColor
p151
VNNP
p152
tp153
a(Vand
p154
VCC
p155
tp156
a(VBlue
p157
VNNP
p158
tp159
a(VRaspberry
p160
VNNP
p161
tp162
a(VLicorice
p163
VNNP
p164
tp165
a(VTwists,
p166
VNN
p167
tp168
a(VI
p169
VPRP
p170
tp171
a(Vlike
p172
VVBP
p173
tp174
a(Vthem
p175
VPRP
p176
tp177
a(VallI
p178
VNNP
p179
tp180
a(Vkeep
p181
VVB
p182
tp183
a(Vit
p184
VPRP
p185
tp186
a(Vin
p187
VIN
p188
tp189
a(g82
VDT
p190
tp191
a(Vdry
p192
VJJ
p193
tp194
a(Vcool
p195
VJJ
p196
tp197
a(Vplace
p198
VNN
p199
tp200
a(Vbecause
p201
VIN
p202
tp203
a(Vis
p204
VVBZ
p205
tp206
a(Vnot
p207
VRB
p208
tp209
a(Vrecommended
p210
VVBN
p211
tp212
a(Vit
p213
VPRP
p214
tp215
a(Vto
p216
VTO
p217
tp218
a(Vput
p219
VVB
p220
tp221
a(Vit
p222
VPRP
p223
tp224
a(Vin
p225
VIN
p226
tp227
a(Vthe
p228
VDT
p229
tp230
a(Vfridge.
p231
VNN
p232
tp233
a(VAccording
p234
VVBG
p235
tp236
a(Vto
p237
VTO
p238
tp239
a(Vthe
p240
VDT
p241
tp242
a(VGuinness
p243
VNNP
p244
tp245
a(VBook
p246
VNNP
p247
tp248
a(Vof
p249
VIN
p250
tp251
a(VRecords,
p252
VNNP
p253
tp254
a(Vthe
p255
VDT
p256
tp257
a(Vlongest
p258
VJJS
p259
tp260
a(VLicorice
p261
VNN
p262
tp263
a(VTwist
p264
VNN
p265
tp266
a(Vever
p267
VRB
p268
tp269
a(Vmade
p270
VVBD
p271
tp272
a(Vmeasured
p273
VVBN
p274
tp275
a(V1.200
p276
VCD
p277
tp278
a(VFeet
p279
VNNP
p280
tp281
a(V(370
p282
VCD
p283
tp284
a(VM)
p285
VNN
p286
tp287
a(Vand
p288
VCC
p289
tp290
a(Vweighted
p291
VVBD
p292
tp293
a(V100
p294
VCD
p295
tp296
a(VPounds
p297
VNNS
p298
tp299
a(V(45
p300
VFW
p301
tp302
a(VKg)
p303
VFW
p304
tp305
a(Vand
p306
VCC
p307
tp308
a(Vwas
p309
VVBD
p310
tp311
a(Vmade
p312
VVBN
p313
tp314
a(Vby
p315
VIN
p316
tp317
a(g34
VNN
p318
tp319
a(g37
VCC
p320
tp321
a(g40
VNNP
p322
tp323
a(VCandies,
p324
VNNP
p325
tp326
a(VInc.
p327
VNNP
p328
tp329
a(VThis
p330
VNNP
p331
tp332
a(VRecord-Breaking
p333
VNNP
p334
tp335
a(VTwist
p336
VNN
p337
tp338
a(Vbecame
p339
VVBD
p340
tp341
a(g82
VDT
p342
tp343
a(VGuinness
p344
VNNP
p345
tp346
a(VWorld
p347
VNNP
p348
tp349
a(VRecord
p350
VNNP
p351
tp352
a(Von
p353
VIN
p354
tp355
a(VJuly
p356
VNNP
p357
tp358
a(V19,
p359
VCD
p360
tp361
a(V1998.
p362
VCD
p363
tp364
a(VThis
p365
VDT
p366
tp367
a(VProduct
p368
VNN
p369
tp370
a(Vis
p371
VVBZ
p372
tp373
a(VKosher!
p374
VNNP
p375
tp376
a(VThank
p377
VVB
p378
tp379
a(VYou
p380
VPRP
p381
tp382
a.