(lp0
(VGood
p1
VJJ
p2
tp3
a(Voatmeal.
p4
VNN
p5
tp6
a(VI
p7
VPRP
p8
tp9
a(Vlike
p10
VVBP
p11
tp12
a(Vthe
p13
VDT
p14
tp15
a(Vapple
p16
VNN
p17
tp18
a(Vcinnamon
p19
VNNP
p20
tp21
a(Vthe
p22
VDT
p23
tp24
a(Vbest.
p25
VNNP
p26
tp27
a(VThough
p28
VNNP
p29
tp30
a(g7
VPRP
p31
tp32
a(Vwouldn't
p33
VVBP
p34
tp35
a(Vfollow
p36
VVB
p37
tp38
a(Vthe
p39
VDT
p40
tp41
a(Vdirections
p42
VNNS
p43
tp44
a(Von
p45
VIN
p46
tp47
a(Vthe
p48
VDT
p49
tp50
a(Vpackage
p51
VNN
p52
tp53
a(Vsince
p54
VIN
p55
tp56
a(Vit
p57
VPRP
p58
tp59
a(Valways
p60
VRB
p61
tp62
a(Vcomes
p63
VVBZ
p64
tp65
a(Vout
p66
VRP
p67
tp68
a(Vtoo
p69
VRB
p70
tp71
a(Vsoupy
p72
VJJ
p73
tp74
a(Vfor
p75
VIN
p76
tp77
a(Vmy
p78
VPRP$
p79
tp80
a(Vtaste.
p81
VNN
p82
tp83
a(VThat
p84
VDT
p85
tp86
a(Vcould
p87
VMD
p88
tp89
a(Vjust
p90
VRB
p91
tp92
a(Vbe
p93
VVB
p94
tp95
a(Vme
p96
VPRP
p97
tp98
a(Vsince
p99
VIN
p100
tp101
a(g7
VPRP
p102
tp103
a(Vlike
p104
VVBP
p105
tp106
a(Vmy
p107
VPRP$
p108
tp109
a(Voatmeal
p110
VNN
p111
tp112
a(Vreally
p113
VRB
p114
tp115
a(Vthick
p116
VJJ
p117
tp118
a(Vto
p119
VTO
p120
tp121
a(Vadd
p122
VVB
p123
tp124
a(Vsome
p125
VDT
p126
tp127
a(Vmilk
p128
VNN
p129
tp130
a(Von
p131
VIN
p132
tp133
a(Vtop
p134
VJJ
p135
tp136
a(Vof.
p137
VNN
p138
tp139
a.