(lp0
(VThis
p1
VDT
p2
tp3
a(Vwasn't
p4
VNN
p5
tp6
a(Vin
p7
VIN
p8
tp9
a(Vstock
p10
VNN
p11
tp12
a(Vthe
p13
VDT
p14
tp15
a(Vlast
p16
VJJ
p17
tp18
a(Vtime
p19
VNN
p20
tp21
a(VI
p22
VPRP
p23
tp24
a(Vlooked.
p25
VVBP
p26
tp27
a(g22
VPRP
p28
tp29
a(Vhad
p30
VVBD
p31
tp32
a(Vto
p33
VTO
p34
tp35
a(Vgo
p36
VVB
p37
tp38
a(Vto
p39
VTO
p40
tp41
a(Vthe
p42
VDT
p43
tp44
a(VVermont
p45
VNNP
p46
tp47
a(VCountry
p48
VNNP
p49
tp50
a(VStore
p51
VNNP
p52
tp53
a(Vin
p54
VIN
p55
tp56
a(VWeston
p57
VNNP
p58
tp59
a(Vto
p60
VTO
p61
tp62
a(Vfind
p63
VVB
p64
tp65
a(Vit
p66
VPRP
p67
tp68
a(Valong
p69
VIN
p70
tp71
a(Vwith
p72
VIN
p73
tp74
a(Va
p75
VDT
p76
tp77
a(Vjaw
p78
VNN
p79
tp80
a(Vharp,
p81
VNNP
p82
tp83
a(VCranberry
p84
VNNP
p85
tp86
a(VHorseradish
p87
VNNP
p88
tp89
a(VSauce,
p90
VNNP
p91
tp92
a(VFartless
p93
VNNP
p94
tp95
a(VBlack
p96
VNNP
p97
tp98
a(VBean
p99
VNNP
p100
tp101
a(VSalsa,
p102
VNNP
p103
tp104
a(VApple
p105
VNNP
p106
tp107
a(VCider
p108
VNNP
p109
tp110
a(VJelly,
p111
VNNP
p112
tp113
a(VNewton's
p114
VNNP
p115
tp116
a(VCradle
p117
VNNP
p118
tp119
a(VArt
p120
VNNP
p121
tp122
a(Vin
p123
VIN
p124
tp125
a(VMotion
p126
VNNP
p127
tp128
a(Vand
p129
VCC
p130
tp131
a(Vthe
p132
VDT
p133
tp134
a(Vstaple
p135
VNN
p136
tp137
a(VVermont
p138
VNNP
p139
tp140
a(VMaple
p141
VNNP
p142
tp143
a(VSyrup.Back
p144
VNN
p145
tp146
a(Vto
p147
VTO
p148
tp149
a(Vthe
p150
VDT
p151
tp152
a(VAss
p153
VNN
p154
tp155
a(VKickin
p156
VFW
p157
tp158
a(VPeanuts.
p159
VFW
p160
tp161
a(VThey
p162
VPRP
p163
tp164
a(Vare
p165
VVBP
p166
tp167
a(Vhot.
p168
VVBN
p169
tp170
a(VThey
p171
VPRP
p172
tp173
a(Vwill
p174
VMD
p175
tp176
a(Vactivate
p177
VVB
p178
tp179
a(Vthe
p180
VDT
p181
tp182
a(Vperspiration
p183
VNN
p184
tp185
a(Vglands
p186
VNNS
p187
tp188
a(Vbehind
p189
VIN
p190
tp191
a(Vyour
p192
VPRP$
p193
tp194
a(Vears
p195
VNNS
p196
tp197
a(Vand
p198
VCC
p199
tp200
a(Vunder
p201
VIN
p202
tp203
a(Vyour
p204
VPRP$
p205
tp206
a(Varms.
p207
VNN
p208
tp209
a(VIt
p210
VPRP
p211
tp212
a(Vrequires
p213
VVBZ
p214
tp215
a(g75
VDT
p216
tp217
a(Vbeverage
p218
VNN
p219
tp220
a(Vas
p221
VIN
p222
tp223
a(Vadvertised,
p224
VNN
p225
tp226
a(g75
VDT
p227
tp228
a(Vglass
p229
VNN
p230
tp231
a(Vof
p232
VIN
p233
tp234
a(Vvery
p235
VRB
p236
tp237
a(Vcold
p238
VJJ
p239
tp240
a(Vmilk,
p241
VNN
p242
tp243
a(Vand
p244
VCC
p245
tp246
a(g75
VDT
p247
tp248
a(Vbox
p249
VNN
p250
tp251
a(Vof
p252
VIN
p253
tp254
a(VKleenex
p255
VNNP
p256
tp257
a(Vsince
p258
VIN
p259
tp260
a(Vit
p261
VPRP
p262
tp263
a(Vwill
p264
VMD
p265
tp266
a(Vmake
p267
VVB
p268
tp269
a(Vyour
p270
VPRP$
p271
tp272
a(Vnose
p273
VNN
p274
tp275
a(Vrun.
p276
VNN
p277
tp278
a(VThey
p279
VPRP
p280
tp281
a(Vlook
p282
VVBP
p283
tp284
a(Vlike
p285
VIN
p286
tp287
a(Vordinary
p288
VJJ
p289
tp290
a(Vpeanuts
p291
VNNS
p292
tp293
a(Vwhich
p294
VWDT
p295
tp296
a(Vis
p297
VVBZ
p298
tp299
a(Valready
p300
VRB
p301
tp302
a(Vgiving
p303
VVBG
p304
tp305
a(Vme
p306
VPRP
p307
tp308
a(Videas
p309
VNNS
p310
tp311
a(Vfor
p312
VIN
p313
tp314
a(Vwork.
p315
VNN
p316
tp317
a(g22
VPRP
p318
tp319
a(Vsuspect
p320
VVBP
p321
tp322
a(Vthat
p323
VIN
p324
tp325
a(Vsome
p326
VDT
p327
tp328
a(Vpeople
p329
VNNS
p330
tp331
a(Vhave
p332
VVBP
p333
tp334
a(Vbeen
p335
VVBN
p336
tp337
a(Vhitting
p338
VVBG
p339
tp340
a(Vmy
p341
VPRP$
p342
tp343
a(Vgoodies
p344
VNNS
p345
tp346
a(Vin
p347
VIN
p348
tp349
a(Vmy
p350
VPRP$
p351
tp352
a(Vabsence,
p353
VNN
p354
tp355
a(Vespecially
p356
VRB
p357
tp358
a(Vmy
p359
VPRP$
p360
tp361
a(Vcolleague
p362
VNN
p363
tp364
a(VGreg.
p365
VFW
p366
tp367
a(VI'm
p368
VFW
p369
tp370
a(Vgoing
p371
VVBG
p372
tp373
a(Vto
p374
VTO
p375
tp376
a(Vtake
p377
VVB
p378
tp379
a(Vthis
p380
VDT
p381
tp382
a(Vto
p383
VTO
p384
tp385
a(Vwork
p386
VVB
p387
tp388
a(Vat
p389
VIN
p390
tp391
a(Vearliest
p392
VJJS
p393
tp394
a(Vopportunity
p395
VNN
p396
tp397
a(Vand
p398
VCC
p399
tp400
a(Vempty
p401
VVB
p402
tp403
a(Vthe
p404
VDT
p405
tp406
a(Vcontents
p407
VNNS
p408
tp409
a(Vof
p410
VIN
p411
tp412
a(Vthis
p413
VDT
p414
tp415
a(Vcan
p416
VNN
p417
tp418
a(Vinto
p419
VIN
p420
tp421
a(Van
p422
VDT
p423
tp424
a(Vordinary
p425
VJJ
p426
tp427
a(VPlanters
p428
VNNP
p429
tp430
a(VPeanuts
p431
VNNP
p432
tp433
a(Vcan,
p434
VNN
p435
tp436
a(Vand
p437
VCC
p438
tp439
a(Vthen
p440
VRB
p441
tp442
a(Vsee
p443
VVB
p444
tp445
a(Vwhose
p446
VWP$
p447
tp448
a(Vcrying
p449
VVBG
p450
tp451
a(Vor
p452
VCC
p453
tp454
a(Vwhose
p455
VWP$
p456
tp457
a(Vnose
p458
VNN
p459
tp460
a(Vis
p461
VVBZ
p462
tp463
a(Vrunning
p464
VVBG
p465
tp466
a(Vwhen
p467
VWRB
p468
tp469
a(g22
VPRP
p470
tp471
a(Vreturn.The
p472
VVBP
p473
tp474
a(Vcan
p475
VMD
p476
tp477
a(Vshould
p478
VMD
p479
tp480
a(Vbe
p481
VVB
p482
tp483
a(Vshaken
p484
VVBN
p485
tp486
a(Vto
p487
VTO
p488
tp489
a(Vensure
p490
VVB
p491
tp492
a(Vthe
p493
VDT
p494
tp495
a(Vspices
p496
VNNS
p497
tp498
a(Vare
p499
VVBP
p500
tp501
a(Vevenly
p502
VRB
p503
tp504
a(Vdistributed.
p505
VVBN
p506
tp507
a(VIt
p508
VPRP
p509
tp510
a(Vis
p511
VVBZ
p512
tp513
a(Vimportant
p514
VJJ
p515
tp516
a(Vto
p517
VTO
p518
tp519
a(Vwash
p520
VVB
p521
tp522
a(Vyour
p523
VPRP$
p524
tp525
a(Vhands
p526
VNNS
p527
tp528
a(Vafter
p529
VIN
p530
tp531
a(Vconsumption
p532
VNN
p533
tp534
a(Vand
p535
VCC
p536
tp537
a(Vnot
p538
VRB
p539
tp540
a(Vtouch
p541
VVB
p542
tp543
a(Vthe
p544
VDT
p545
tp546
a(Veyes.You'll
p547
VNN
p548
tp549
a(Vgo
p550
VVB
p551
tp552
a(Vnuts
p553
VNNS
p554
tp555
a(Vover
p556
VIN
p557
tp558
a(Vthese
p559
VDT
p560
tp561
a(VAss-Kickin'
p562
VFW
p563
tp564
a(VPeanuts.P.S.
p565
VFW
p566
tp567
a(VI'm
p568
VNN
p569
tp570
a(Vnot
p571
VRB
p572
tp573
a(Vsharing
p574
VVBG
p575
tp576
a(Vthe
p577
VDT
p578
tp579
a(Vpeanuts,
p580
VNN
p581
tp582
a(Vnot
p583
VRB
p584
tp585
a(Vdeliberately,
p586
VNN
p587
tp588
a(Vand
p589
VCC
p590
tp591
a(VI'll
p592
VNN
p593
tp594
a(Vprobably
p595
VRB
p596
tp597
a(Vgive
p598
VVBP
p599
tp600
a(VGreg
p601
VNNP
p602
tp603
a(Vthe
p604
VDT
p605
tp606
a(Vjaw
p607
VNN
p608
tp609
a(Vharp
p610
VNN
p611
tp612
a(Vfor
p613
VIN
p614
tp615
a(VChristmas.
p616
VFW
p617
tp618
a(VHe'll
p619
VFW
p620
tp621
a(Vbe
p622
VVB
p623
tp624
a(Vso
p625
VIN
p626
tp627
a(Vinsulted.
p628
VNN
p629
tp630
a.