(lp0
(VThe
p1
VDT
p2
tp3
a(VStrawberry
p4
VNNP
p5
tp6
a(VTwizzlers
p7
VNNPS
p8
tp9
a(Vare
p10
VVBP
p11
tp12
a(Vmy
p13
VPRP$
p14
tp15
a(Vguilty
p16
VJJ
p17
tp18
a(Vpleasure
p19
VNN
p20
tp21
a(V-
p22
V:
p23
tp24
a(Vyummy.
p25
VNN
p26
tp27
a(VSix
p28
VCD
p29
tp30
a(Vpounds
p31
VNNS
p32
tp33
a(Vwill
p34
VMD
p35
tp36
a(Vbe
p37
VVB
p38
tp39
a(Varound
p40
VRB
p41
tp42
a(Vfor
p43
VIN
p44
tp45
a(Va
p46
VDT
p47
tp48
a(Vwhile
p49
VNN
p50
tp51
a(Vwith
p52
VIN
p53
tp54
a(Vmy
p55
VPRP$
p56
tp57
a(Vson
p58
VNN
p59
tp60
a(Vand
p61
VCC
p62
tp63
a(VI.
p64
VNN
p65
tp66
a.