(lp0
(VThis
p1
VDT
p2
tp3
a(Vbag
p4
VNN
p5
tp6
a(Vof
p7
VIN
p8
tp9
a(Vcandy
p10
VNN
p11
tp12
a(Vonline
p13
VNN
p14
tp15
a(Vis
p16
VVBZ
p17
tp18
a(Vpretty
p19
VJJ
p20
tp21
a(Vexpensive,
p22
VNN
p23
tp24
a(Vit
p25
VPRP
p26
tp27
a(Vshould
p28
VMD
p29
tp30
a(Vbe
p31
VVB
p32
tp33
a(Vcheaper
p34
VJJR
p35
tp36
a(Vin
p37
VIN
p38
tp39
a(Vorder
p40
VNN
p41
tp42
a(Vto
p43
VTO
p44
tp45
a(Vcompete
p46
VVB
p47
tp48
a(Vwith
p49
VIN
p50
tp51
a(Vgrocery
p52
VNN
p53
tp54
a(Vstores,
p55
VNN
p56
tp57
a(Vother
p58
VJJ
p59
tp60
a(Vthan
p61
VIN
p62
tp63
a(Vthat,
p64
VCD
p65
tp66
a(Vits
p67
VPRP$
p68
tp69
a(Va
p70
VDT
p71
tp72
a(Vgood
p73
VJJ
p74
tp75
a(Vcombination
p76
VNN
p77
tp78
a(Vof
p79
VIN
p80
tp81
a(Vmy
p82
VPRP$
p83
tp84
a(Vfavorite
p85
VJJ
p86
tp87
a(Vcandy
p88
VNN
p89
tp90
a.