(lp0
(VInstant
p1
VJJ
p2
tp3
a(Voatmeal
p4
VNN
p5
tp6
a(Vcan
p7
VMD
p8
tp9
a(Vbecome
p10
VVB
p11
tp12
a(Vsoggy
p13
VJJ
p14
tp15
a(Vthe
p16
VDT
p17
tp18
a(Vminute
p19
VNN
p20
tp21
a(Vthe
p22
VDT
p23
tp24
a(Vwater
p25
VNN
p26
tp27
a(Vhits
p28
VVBZ
p29
tp30
a(Vthe
p31
VDT
p32
tp33
a(Vbowl.
p34
VNNP
p35
tp36
a(VMcCann's
p37
VNNP
p38
tp39
a(VInstant
p40
VNNP
p41
tp42
a(VOatmeal
p43
VNNP
p44
tp45
a(Vholds
p46
VVBZ
p47
tp48
a(Vits
p49
VPRP$
p50
tp51
a(Vtexture,
p52
VNN
p53
tp54
a(Vhas
p55
VVBZ
p56
tp57
a(Vexcellent
p58
VJJ
p59
tp60
a(Vflavor,
p61
VNN
p62
tp63
a(Vand
p64
VCC
p65
tp66
a(Vis
p67
VVBZ
p68
tp69
a(Vgood
p70
VJJ
p71
tp72
a(Vfor
p73
VIN
p74
tp75
a(Vyou
p76
VPRP
p77
tp78
a(Vall
p79
VDT
p80
tp81
a(Vat
p82
VIN
p83
tp84
a(Vthe
p85
VDT
p86
tp87
a(Vsame
p88
VJJ
p89
tp90
a(Vtime.
p91
VFW
p92
tp93
a(VMcCann's
p94
VFW
p95
tp96
a(Vregular
p97
VJJ
p98
tp99
a(Voat
p100
VNN
p101
tp102
a(Vmeal
p103
VNN
p104
tp105
a(Vis
p106
VVBZ
p107
tp108
a(Vexcellent,
p109
VFW
p110
tp111
a(Vtoo,
p112
VFW
p113
tp114
a(Vbut
p115
VCC
p116
tp117
a(Vmay
p118
VMD
p119
tp120
a(Vtake
p121
VVB
p122
tp123
a(Va
p124
VDT
p125
tp126
a(Vbit
p127
VNN
p128
tp129
a(Vlonger
p130
VRBR
p131
tp132
a(Vto
p133
VTO
p134
tp135
a(Vprepare
p136
VVB
p137
tp138
a(Vthan
p139
VIN
p140
tp141
a(Vmost
p142
VJJS
p143
tp144
a(Vhave
p145
VVBP
p146
tp147
a(Vtime
p148
VNN
p149
tp150
a(Vfor
p151
VIN
p152
tp153
a(Vin
p154
VIN
p155
tp156
a(Vthe
p157
VDT
p158
tp159
a(Vmorning.
p160
VNNP
p161
tp162
a(VThis
p163
VNNP
p164
tp165
a(Vis
p166
VVBZ
p167
tp168
a(Vthe
p169
VDT
p170
tp171
a(Vbest
p172
VJJS
p173
tp174
a(Vinstant
p175
VNN
p176
tp177
a(Vbrand
p178
VNN
p179
tp180
a(VI've
p181
VNN
p182
tp183
a(Vever
p184
VRB
p185
tp186
a(Veaten,
p187
VNN
p188
tp189
a(Vand
p190
VCC
p191
tp192
a(g124
VDT
p193
tp194
a(Vvery
p195
VRB
p196
tp197
a(Vclose
p198
VRB
p199
tp200
a(Vsecond
p201
VJJ
p202
tp203
a(Vto
p204
VTO
p205
tp206
a(Vthe
p207
VDT
p208
tp209
a(Vnon-instant
p210
VJJ
p211
tp212
a(Vvariety.McCann's
p213
VNN
p214
tp215
a(VInstant
p216
VJJ
p217
tp218
a(VIrish
p219
VJJ
p220
tp221
a(VOatmeal,
p222
VNN
p223
tp224
a(VVariety
p225
VNNP
p226
tp227
a(VPack
p228
VVB
p229
tp230
a(Vof
p231
VIN
p232
tp233
a(VRegular,
p234
VNNP
p235
tp236
a(VApples
p237
VNNP
p238
tp239
a(V&
p240
VCC
p241
tp242
a(VCinnamon,
p243
VNNP
p244
tp245
a(Vand
p246
VCC
p247
tp248
a(VMaple
p249
VNNP
p250
tp251
a(g240
VCC
p252
tp253
a(VBrown
p254
VNNP
p255
tp256
a(VSugar,
p257
VNNP
p258
tp259
a(V10-Count
p260
VNNP
p261
tp262
a(VBoxes
p263
VNNPS
p264
tp265
a(V(Pack
p266
VNN
p267
tp268
a(Vof
p269
VIN
p270
tp271
a(V6)
p272
VNN
p273
tp274
a.