(lp0
(VI
p1
VPRP
p2
tp3
a(Vlove
p4
VVBP
p5
tp6
a(Veating
p7
VVBG
p8
tp9
a(Vthem
p10
VPRP
p11
tp12
a(Vand
p13
VCC
p14
tp15
a(Vthey
p16
VPRP
p17
tp18
a(Vare
p19
VVBP
p20
tp21
a(Vgood
p22
VJJ
p23
tp24
a(Vfor
p25
VIN
p26
tp27
a(Vwatching
p28
VVBG
p29
tp30
a(VTV
p31
VNN
p32
tp33
a(Vand
p34
VCC
p35
tp36
a(Vlooking
p37
VVBG
p38
tp39
a(Vat
p40
VIN
p41
tp42
a(Vmovies!
p43
VNN
p44
tp45
a(VIt
p46
VPRP
p47
tp48
a(Vis
p49
VVBZ
p50
tp51
a(Vnot
p52
VRB
p53
tp54
a(Vtoo
p55
VRB
p56
tp57
a(Vsweet.
p58
VNN
p59
tp60
a(g1
VPRP
p61
tp62
a(Vlike
p63
VVBP
p64
tp65
a(Vto
p66
VTO
p67
tp68
a(Vtransfer
p69
VVB
p70
tp71
a(Vthem
p72
VPRP
p73
tp74
a(Vto
p75
VTO
p76
tp77
a(Va
p78
VDT
p79
tp80
a(Vzip
p81
VNN
p82
tp83
a(Vlock
p84
VNN
p85
tp86
a(Vbaggie
p87
VNN
p88
tp89
a(Vso
p90
VIN
p91
tp92
a(Vthey
p93
VPRP
p94
tp95
a(Vstay
p96
VVBP
p97
tp98
a(Vfresh
p99
VJJ
p100
tp101
a(Vso
p102
VIN
p103
tp104
a(g1
VPRP
p105
tp106
a(Vcan
p107
VMD
p108
tp109
a(Vtake
p110
VVB
p111
tp112
a(Vmy
p113
VPRP$
p114
tp115
a(Vtime
p116
VNN
p117
tp118
a(Veating
p119
VVBG
p120
tp121
a(Vthem.
p122
VNN
p123
tp124
a.