(lp0
(VGreat
p1
VJJ
p2
tp3
a(Vproduct,
p4
VNN
p5
tp6
a(Vnice
p7
VJJ
p8
tp9
a(Vcombination
p10
VNN
p11
tp12
a(Vof
p13
VIN
p14
tp15
a(Vchocolates
p16
VNNS
p17
tp18
a(Vand
p19
VCC
p20
tp21
a(Vperfect
p22
VJJ
p23
tp24
a(Vsize!
p25
VNN
p26
tp27
a(VThe
p28
VDT
p29
tp30
a(Vbags
p31
VNN
p32
tp33
a(Vhad
p34
VVBD
p35
tp36
a(Vplenty,
p37
VNN
p38
tp39
a(Vand
p40
VCC
p41
tp42
a(Vthey
p43
VPRP
p44
tp45
a(Vwere
p46
VVBD
p47
tp48
a(Vshipped
p49
VVBN
p50
tp51
a(Vpromptly.
p52
VNNP
p53
tp54
a(VThe
p55
VNNP
p56
tp57
a(Vkids
p58
VNNS
p59
tp60
a(Vin
p61
VIN
p62
tp63
a(Vthe
p64
VDT
p65
tp66
a(Vneighborhood
p67
VNN
p68
tp69
a(Vliked
p70
VVBD
p71
tp72
a(Vour
p73
VPRP$
p74
tp75
a(Vcandies!
p76
VNN
p77
tp78
a.