(lp0
(VArrived
p1
VVBN
p2
tp3
a(Vin
p4
VIN
p5
tp6
a(V6
p7
VCD
p8
tp9
a(Vdays
p10
VNNS
p11
tp12
a(Vand
p13
VCC
p14
tp15
a(Vwere
p16
VVBD
p17
tp18
a(Vso
p19
VRB
p20
tp21
a(Vstale
p22
VJJ
p23
tp24
a(Vi
p25
VFW
p26
tp27
a(Vcould
p28
VMD
p29
tp30
a(Vnot
p31
VRB
p32
tp33
a(Veat
p34
VVB
p35
tp36
a(Vany
p37
VDT
p38
tp39
a(Vof
p40
VIN
p41
tp42
a(Vthe
p43
VDT
p44
tp45
a(g7
VCD
p46
tp47
a(Vbags!!
p48
VNN
p49
tp50
a.