(lp0
(VThe
p1
VDT
p2
tp3
a(Vflavors
p4
VNNS
p5
tp6
a(Vare
p7
VVBP
p8
tp9
a(Vgood.
p10
VFW
p11
tp12
a(VHowever,
p13
VFW
p14
tp15
a(VI
p16
VPRP
p17
tp18
a(Vdo
p19
VVBP
p20
tp21
a(Vnot
p22
VRB
p23
tp24
a(Vsee
p25
VVB
p26
tp27
a(Vany
p28
VDT
p29
tp30
a(Vdifferce
p31
VNN
p32
tp33
a(Vbetween
p34
VIN
p35
tp36
a(Vthis
p37
VDT
p38
tp39
a(Vand
p40
VCC
p41
tp42
a(VOaker
p43
VNNP
p44
tp45
a(VOats
p46
VNNP
p47
tp48
a(Vbrand
p49
VNN
p50
tp51
a(V-
p52
V:
p53
tp54
a(Vthey
p55
VPRP
p56
tp57
a(Vare
p58
VVBP
p59
tp60
a(Vboth
p61
VDT
p62
tp63
a(Vmushy.
p64
VNN
p65
tp66
a.