(lp0
(VI
p1
VPRP
p2
tp3
a(Vpurchased
p4
VVBD
p5
tp6
a(Vthe
p7
VDT
p8
tp9
a(VMango
p10
VNNP
p11
tp12
a(Vflavor,
p13
VNN
p14
tp15
a(Vand
p16
VCC
p17
tp18
a(Vto
p19
VTO
p20
tp21
a(Vme
p22
VPRP
p23
tp24
a(Vit
p25
VPRP
p26
tp27
a(Vdoesn't
p28
VJJ
p29
tp30
a(Vtake
p31
VNN
p32
tp33
a(Vlike
p34
VIN
p35
tp36
a(VMango
p37
VNNP
p38
tp39
a(Vat
p40
VIN
p41
tp42
a(Vall.
p43
VNNP
p44
tp45
a(VThere
p46
VEX
p47
tp48
a(Vis
p49
VVBZ
p50
tp51
a(Vno
p52
VDT
p53
tp54
a(Vhint
p55
VNN
p56
tp57
a(Vof
p58
VIN
p59
tp60
a(Vsweetness,
p61
VNN
p62
tp63
a(Vand
p64
VCC
p65
tp66
a(Vunfortunately
p67
VRB
p68
tp69
a(Vthere
p70
VEX
p71
tp72
a(Vis
p73
VVBZ
p74
tp75
a(Va
p76
VDT
p77
tp78
a(Vhint
p79
VNN
p80
tp81
a(Vor
p82
VCC
p83
tp84
a(Vaftertaste
p85
VNN
p86
tp87
a(Valmost
p88
VRB
p89
tp90
a(Vlike
p91
VIN
p92
tp93
a(Vlicorice.
p94
VFW
p95
tp96
a(VI've
p97
VFW
p98
tp99
a(Vbeen
p100
VVBN
p101
tp102
a(Vconsuming
p103
VVBG
p104
tp105
a(Vvarious
p106
VJJ
p107
tp108
a(Vsports
p109
VNNS
p110
tp111
a(Vnutrition
p112
VNN
p113
tp114
a(Vproducts
p115
VNNS
p116
tp117
a(Vfor
p118
VIN
p119
tp120
a(Vdecades,
p121
VNN
p122
tp123
a(Vso
p124
VIN
p125
tp126
a(VI'm
p127
VNN
p128
tp129
a(Vfamiliar
p130
VJJ
p131
tp132
a(Vand
p133
VCC
p134
tp135
a(Vhave
p136
VVBP
p137
tp138
a(Vcome
p139
VVBN
p140
tp141
a(Vto
p142
VTO
p143
tp144
a(Vlike
p145
VVB
p146
tp147
a(Vthe
p148
VDT
p149
tp150
a(Vtaste
p151
VNN
p152
tp153
a(Vof
p154
VIN
p155
tp156
a(Vthe
p157
VDT
p158
tp159
a(Vmost
p160
VJJS
p161
tp162
a(Vof
p163
VIN
p164
tp165
a(Vthe
p166
VDT
p167
tp168
a(Vproducts
p169
VNNS
p170
tp171
a(VI've
p172
VFW
p173
tp174
a(Vtried.
p175
VFW
p176
tp177
a(VThe
p178
VDT
p179
tp180
a(Vmango
p181
VNN
p182
tp183
a(Vflavor
p184
VNN
p185
tp186
a(Vis
p187
VVBZ
p188
tp189
a(Vone
p190
VCD
p191
tp192
a(Vof
p193
VIN
p194
tp195
a(Vthe
p196
VDT
p197
tp198
a(Vleast
p199
VJJS
p200
tp201
a(Vappealing
p202
VJJ
p203
tp204
a(VI've
p205
VFW
p206
tp207
a(Vtasted.
p208
VFW
p209
tp210
a(VIt's
p211
VFW
p212
tp213
a(Vnot
p214
VRB
p215
tp216
a(Vterrible,
p217
VNN
p218
tp219
a(Vbut
p220
VCC
p221
tp222
a(Vit's
p223
VNNS
p224
tp225
a(Vbad
p226
VJJ
p227
tp228
a(Venough
p229
VRB
p230
tp231
a(Vthat
p232
VIN
p233
tp234
a(g1
VPRP
p235
tp236
a(Vnotice
p237
VVBP
p238
tp239
a(Vthe
p240
VDT
p241
tp242
a(Vbad
p243
VJJ
p244
tp245
a(Vtaste
p246
VNN
p247
tp248
a(Vevery
p249
VDT
p250
tp251
a(Vsip
p252
VNN
p253
tp254
a(g1
VPRP
p255
tp256
a(Vtake.
p257
VVBP
p258
tp259
a.