(lp0
(VMy
p1
VPRP$
p2
tp3
a(VEnglish
p4
VNNP
p5
tp6
a(VBulldog
p7
VNNP
p8
tp9
a(Vhad
p10
VVBD
p11
tp12
a(Vskin
p13
VNN
p14
tp15
a(Vallergies
p16
VNNS
p17
tp18
a(Vthe
p19
VDT
p20
tp21
a(Vsummer
p22
VNN
p23
tp24
a(Vwe
p25
VPRP
p26
tp27
a(Vgot
p28
VVBD
p29
tp30
a(Vhim
p31
VPRP
p32
tp33
a(Vat
p34
VIN
p35
tp36
a(Vage
p37
VNN
p38
tp39
a(V3.
p40
VLS
p41
tp42
a(VThe
p43
VDT
p44
tp45
a(Vvet
p46
VNN
p47
tp48
a(Vrecommended
p49
VVBD
p50
tp51
a(Vwe
p52
VPRP
p53
tp54
a(Vwean
p55
VVBP
p56
tp57
a(Vhim
p58
VPRP
p59
tp60
a(Voff
p61
VIN
p62
tp63
a(Vthe
p64
VDT
p65
tp66
a(Vfood
p67
VNN
p68
tp69
a(Vhis
p70
VPRP$
p71
tp72
a(Vprevious
p73
VJJ
p74
tp75
a(Vowner
p76
VNN
p77
tp78
a(Vgave
p79
VVBD
p80
tp81
a(Vhim
p82
VPRP
p83
tp84
a(V(Iams
p85
VVBZ
p86
tp87
a(VLamb
p88
VNN
p89
tp90
a(Vand
p91
VCC
p92
tp93
a(VRice)
p94
VNN
p95
tp96
a(Vand
p97
VCC
p98
tp99
a(Vonto
p100
VIN
p101
tp102
a(Va
p103
VDT
p104
tp105
a(Vnew
p106
VJJ
p107
tp108
a(Vkind.
p109
VNNP
p110
tp111
a(VThis
p112
VNNP
p113
tp114
a(Vwas
p115
VVBD
p116
tp117
a(Vthe
p118
VDT
p119
tp120
a(Vsecond
p121
VJJ
p122
tp123
a(Vone
p124
VCD
p125
tp126
a(Vwe
p127
VPRP
p128
tp129
a(Vtried,
p130
VVBP
p131
tp132
a(Vand
p133
VCC
p134
tp135
a(Vit
p136
VPRP
p137
tp138
a(Vhas
p139
VVBZ
p140
tp141
a(Vbeen
p142
VVBN
p143
tp144
a(Vworking
p145
VVBG
p146
tp147
a(Vever
p148
VRB
p149
tp150
a(Vsince.
p151
VFW
p152
tp153
a(VIt's
p154
VFW
p155
tp156
a(Vfor
p157
VIN
p158
tp159
a(Vdogs
p160
VNNS
p161
tp162
a(Vthat
p163
VWDT
p164
tp165
a(Vneed
p166
VVBP
p167
tp168
a(g103
VDT
p169
tp170
a(Vlimited
p171
VJJ
p172
tp173
a(Vdiet
p174
VNN
p175
tp176
a(Vwho
p177
VWP
p178
tp179
a(Vcan
p180
VMD
p181
tp182
a(Vbe
p183
VVB
p184
tp185
a(Vsensitive
p186
VJJ
p187
tp188
a(Vto
p189
VTO
p190
tp191
a(Vadditives
p192
VNNS
p193
tp194
a(Vand
p195
VCC
p196
tp197
a(Vproteins
p198
VNNS
p199
tp200
a(Vcommonly
p201
VRB
p202
tp203
a(Vfound
p204
VVBN
p205
tp206
a(Vin
p207
VIN
p208
tp209
a(Vcommercial
p210
VJJ
p211
tp212
a(Vdog
p213
VNN
p214
tp215
a(Vfood
p216
VNN
p217
tp218
a(V(like
p219
VJJ
p220
tp221
a(Vchicken
p222
VNN
p223
tp224
a(Vor
p225
VCC
p226
tp227
a(Vbeef).
p228
VNN
p229
tp230
a.