(lp0
(VThis
p1
VDT
p2
tp3
a(Vpeppermint
p4
VNN
p5
tp6
a(Vstick
p7
VNN
p8
tp9
a(Vis
p10
VVBZ
p11
tp12
a(Vdelicious
p13
VJJ
p14
tp15
a(Vand
p16
VCC
p17
tp18
a(Vfun
p19
VNN
p20
tp21
a(Vto
p22
VTO
p23
tp24
a(Veat.
p25
VVB
p26
tp27
a(VMy
p28
VPRP$
p29
tp30
a(Vdad
p31
VNN
p32
tp33
a(Vgot
p34
VVBD
p35
tp36
a(Vme
p37
VPRP
p38
tp39
a(Vone
p40
VCD
p41
tp42
a(Vfor
p43
VIN
p44
tp45
a(VChristmas
p46
VNNP
p47
tp48
a(Vbecause
p49
VIN
p50
tp51
a(Vhe
p52
VPRP
p53
tp54
a(Vremembered
p55
VVBD
p56
tp57
a(Vme
p58
VPRP
p59
tp60
a(Vhaving
p61
VVBG
p62
tp63
a(Va
p64
VDT
p65
tp66
a(Vsimilar
p67
VJJ
p68
tp69
a(Vone
p70
VCD
p71
tp72
a(Vwhen
p73
VWRB
p74
tp75
a(VI
p76
VPRP
p77
tp78
a(Vwas
p79
VVBD
p80
tp81
a(g64
VDT
p82
tp83
a(Vlittle
p84
VJJ
p85
tp86
a(Vgirl.
p87
VFW
p88
tp89
a(VI'm
p90
VFW
p91
tp92
a(V30
p93
VCD
p94
tp95
a(Vnow
p96
VRB
p97
tp98
a(Vand
p99
VCC
p100
tp101
a(g76
VPRP
p102
tp103
a(Vlove
p104
VVBP
p105
tp106
a(Vit!
p107
VNN
p108
tp109
a.