(lp0
(VGreat
p1
VJJ
p2
tp3
a(Vtaffy
p4
VNN
p5
tp6
a(Vat
p7
VIN
p8
tp9
a(Va
p10
VDT
p11
tp12
a(Vgreat
p13
VJJ
p14
tp15
a(Vprice.
p16
VNN
p17
tp18
a(VThere
p19
VEX
p20
tp21
a(Vwas
p22
VVBD
p23
tp24
a(g10
VDT
p25
tp26
a(Vwide
p27
VJJ
p28
tp29
a(Vassortment
p30
VNN
p31
tp32
a(Vof
p33
VIN
p34
tp35
a(Vyummy
p36
VFW
p37
tp38
a(Vtaffy.
p39
VFW
p40
tp41
a(VDelivery
p42
VNN
p43
tp44
a(Vwas
p45
VVBD
p46
tp47
a(Vvery
p48
VRB
p49
tp50
a(Vquick.
p51
VJJ
p52
tp53
a(VIf
p54
VIN
p55
tp56
a(Vyour
p57
VPRP$
p58
tp59
a(g10
VDT
p60
tp61
a(Vtaffy
p62
VFW
p63
tp64
a(Vlover,
p65
VFW
p66
tp67
a(Vthis
p68
VDT
p69
tp70
a(Vis
p71
VVBZ
p72
tp73
a(g10
VDT
p74
tp75
a(Vdeal.
p76
VNN
p77
tp78
a.