(lp0
(VWe
p1
VPRP
p2
tp3
a(Vreally
p4
VRB
p5
tp6
a(Vlike
p7
VIN
p8
tp9
a(Vthe
p10
VDT
p11
tp12
a(VMcCann's
p13
VNN
p14
tp15
a(Vsteel
p16
VNN
p17
tp18
a(Vcut
p19
VNN
p20
tp21
a(Voats
p22
VNNS
p23
tp24
a(Vbut
p25
VCC
p26
tp27
a(Vfind
p28
VVBP
p29
tp30
a(Vwe
p31
VPRP
p32
tp33
a(Vdon't
p34
VJJ
p35
tp36
a(Vcook
p37
VNN
p38
tp39
a(Vit
p40
VPRP
p41
tp42
a(Vup
p43
VRP
p44
tp45
a(Vtoo
p46
VRB
p47
tp48
a(Voften.This
p49
VJJ
p50
tp51
a(Vtastes
p52
VNNS
p53
tp54
a(Vmuch
p55
VRB
p56
tp57
a(Vbetter
p58
VJJR
p59
tp60
a(Vto
p61
VTO
p62
tp63
a(Vme
p64
VPRP
p65
tp66
a(Vthan
p67
VIN
p68
tp69
a(Vthe
p70
VDT
p71
tp72
a(Vgrocery
p73
VNN
p74
tp75
a(Vstore
p76
VNN
p77
tp78
a(Vbrands
p79
VNNS
p80
tp81
a(Vand
p82
VCC
p83
tp84
a(Vis
p85
VVBZ
p86
tp87
a(Vjust
p88
VRB
p89
tp90
a(Vas
p91
VIN
p92
tp93
a(Vconvenient.Anything
p94
VNN
p95
tp96
a(Vthat
p97
VWDT
p98
tp99
a(Vkeeps
p100
VVBZ
p101
tp102
a(Vme
p103
VPRP
p104
tp105
a(Veating
p106
VVBG
p107
tp108
a(Voatmeal
p109
VNN
p110
tp111
a(Vregularly
p112
VRB
p113
tp114
a(Vis
p115
VVBZ
p116
tp117
a(Va
p118
VDT
p119
tp120
a(Vgood
p121
VJJ
p122
tp123
a(Vthing.
p124
VNN
p125
tp126
a.