(lp0
(VGot
p1
VVBD
p2
tp3
a(Va
p4
VDT
p5
tp6
a(Vfree
p7
VJJ
p8
tp9
a(Vpackage
p10
VNN
p11
tp12
a(Vof
p13
VIN
p14
tp15
a(Vthese
p16
VDT
p17
tp18
a(Vwith
p19
VIN
p20
tp21
a(g4
VDT
p22
tp23
a(Vbottle
p24
VNN
p25
tp26
a(Vof
p27
VIN
p28
tp29
a(Vbloody
p30
VJJ
p31
tp32
a(Vmary
p33
VJJ
p34
tp35
a(Vmix
p36
VNN
p37
tp38
a(VI
p39
VPRP
p40
tp41
a(Vbought
p42
VVBD
p43
tp44
a(Vfrom
p45
VIN
p46
tp47
a(Vthe
p48
VDT
p49
tp50
a(Vseller,
p51
VNN
p52
tp53
a(Vand
p54
VCC
p55
tp56
a(Vthe
p57
VDT
p58
tp59
a(Vadvertising
p60
VNN
p61
tp62
a(Vworked..lol,
p63
VNN
p64
tp65
a(g39
VPRP
p66
tp67
a(Vtried
p68
VVBD
p69
tp70
a(Vthem,
p71
VNN
p72
tp73
a(Vand
p74
VCC
p75
tp76
a(Vshared
p77
VVBD
p78
tp79
a(Vthem
p80
VPRP
p81
tp82
a(Vwith
p83
VIN
p84
tp85
a(V2
p86
VCD
p87
tp88
a(Vbuddies,
p89
VNN
p90
tp91
a(Vand
p92
VCC
p93
tp94
a(Vwe
p95
VPRP
p96
tp97
a(Vall
p98
VDT
p99
tp100
a(Vloved
p101
VVBN
p102
tp103
a(Vthem...
p104
VNN
p105
tp106
a(VSo
p107
VIN
p108
tp109
a(Vim
p110
VNN
p111
tp112
a(Vhere
p113
VRB
p114
tp115
a(Vto
p116
VTO
p117
tp118
a(Vbuy
p119
VVB
p120
tp121
a(Vmore,
p122
VNN
p123
tp124
a(Vand
p125
VCC
p126
tp127
a(Vnoticed
p128
VVBD
p129
tp130
a(Vthere
p131
VEX
p132
tp133
a(Vwere
p134
VVBD
p135
tp136
a(Vno
p137
VDT
p138
tp139
a(Vreviews
p140
VNNS
p141
tp142
a(Vyet,...
p143
VVBP
p144
tp145
a(Vwell
p146
VRB
p147
tp148
a(Vnow
p149
VRB
p150
tp151
a(Vthere
p152
VEX
p153
tp154
a(Vis.
p155
VFW
p156
tp157
a(VThey
p158
VPRP
p159
tp160
a(Vare
p161
VVBP
p162
tp163
a(VHot,
p164
VJJ
p165
tp166
a(Vbut
p167
VCC
p168
tp169
a(Vnot
p170
VRB
p171
tp172
a(V"burn
p173
VVB
p174
tp175
a(Vyour
p176
VPRP$
p177
tp178
a(Vmouth
p179
VNN
p180
tp181
a(Vforever
p182
VRB
p183
tp184
a(Vhot"
p185
VVBD
p186
tp187
a(Vits
p188
VPRP$
p189
tp190
a(g4
VDT
p191
tp192
a(Vnice
p193
VJJ
p194
tp195
a(Vtemp...
p196
VNNP
p197
tp198
a(VPerfect
p199
VNNP
p200
tp201
a(Vfor
p202
VIN
p203
tp204
a(Vus..
p205
VNN
p206
tp207
a.