(lp0
(VThis
p1
VDT
p2
tp3
a(Vtaffy
p4
VNN
p5
tp6
a(Vis
p7
VVBZ
p8
tp9
a(Vso
p10
VRB
p11
tp12
a(Vgood.
p13
VJJ
p14
tp15
a(VIt
p16
VPRP
p17
tp18
a(Vis
p19
VVBZ
p20
tp21
a(Vvery
p22
VRB
p23
tp24
a(Vsoft
p25
VJJ
p26
tp27
a(Vand
p28
VCC
p29
tp30
a(Vchewy.
p31
VVBP
p32
tp33
a(VThe
p34
VDT
p35
tp36
a(Vflavors
p37
VNNS
p38
tp39
a(Vare
p40
VVBP
p41
tp42
a(Vamazing.
p43
VNN
p44
tp45
a(VI
p46
VPRP
p47
tp48
a(Vwould
p49
VMD
p50
tp51
a(Vdefinitely
p52
VRB
p53
tp54
a(Vrecommend
p55
VVB
p56
tp57
a(Vyou
p58
VPRP
p59
tp60
a(Vbuying
p61
VVBG
p62
tp63
a(Vit.
p64
VNN
p65
tp66
a(VVery
p67
VRB
p68
tp69
a(Vsatisfying!!
p70
VNN
p71
tp72
a.