(lp0
(VThe
p1
VDT
p2
tp3
a(Vtaste
p4
VNN
p5
tp6
a(Vwas
p7
VVBD
p8
tp9
a(Vgreat,
p10
VNN
p11
tp12
a(Vbut
p13
VCC
p14
tp15
a(Vthe
p16
VDT
p17
tp18
a(Vberries
p19
VNNS
p20
tp21
a(Vhad
p22
VVBD
p23
tp24
a(Vmelted.
p25
VNNP
p26
tp27
a(VMay
p28
VNNP
p29
tp30
a(Vorder
p31
VNN
p32
tp33
a(Vagain
p34
VRB
p35
tp36
a(Vin
p37
VIN
p38
tp39
a(Vwinter.
p40
VNN
p41
tp42
a(VIf
p43
VIN
p44
tp45
a(Vyou
p46
VPRP
p47
tp48
a(Vorder
p49
VVBP
p50
tp51
a(Vin
p52
VIN
p53
tp54
a(Vcold
p55
VJJ
p56
tp57
a(Vweather
p58
VNN
p59
tp60
a(Vyou
p61
VPRP
p62
tp63
a(Vshould
p64
VMD
p65
tp66
a(Venjoy
p67
VVB
p68
tp69
a(Vflavor.
p70
VNN
p71
tp72
a.