(lp0
(VThese
p1
VDT
p2
tp3
a(Vlooked
p4
VVBD
p5
tp6
a(Vlike
p7
VIN
p8
tp9
a(Va
p10
VDT
p11
tp12
a(Vperfect
p13
VJJ
p14
tp15
a(Vsnack
p16
VNN
p17
tp18
a(Vto
p19
VTO
p20
tp21
a(Vthrough
p22
VIN
p23
tp24
a(Vin
p25
VIN
p26
tp27
a(Vwith
p28
VIN
p29
tp30
a(Vmy
p31
VPRP$
p32
tp33
a(Vtrail
p34
VNN
p35
tp36
a(Vmix.
p37
VFW
p38
tp39
a(VUnfortunately,
p40
VFW
p41
tp42
a(Vthey
p43
VPRP
p44
tp45
a(Varrived
p46
VVBD
p47
tp48
a(Vin
p49
VIN
p50
tp51
a(g10
VDT
p52
tp53
a(Vsolid
p54
VJJ
p55
tp56
a(Vmass
p57
VNN
p58
tp59
a(Vof
p60
VIN
p61
tp62
a(Vmelted
p63
VFW
p64
tp65
a(Vchocolate.
p66
VFW
p67
tp68
a(VI
p69
VPRP
p70
tp71
a(Vleft
p72
VVBD
p73
tp74
a(Vthem
p75
VPRP
p76
tp77
a(Vin
p78
VIN
p79
tp80
a(Vmy
p81
VPRP$
p82
tp83
a(Vpantry
p84
VNN
p85
tp86
a(Vfor
p87
VIN
p88
tp89
a(g10
VDT
p90
tp91
a(Vfew
p92
VJJ
p93
tp94
a(Vdays,
p95
VNN
p96
tp97
a(Vand
p98
VCC
p99
tp100
a(Vwhen
p101
VWRB
p102
tp103
a(g69
VPRP
p104
tp105
a(Vopened
p106
VVBD
p107
tp108
a(Vthem
p109
VPRP
p110
tp111
a(Vat
p112
VIN
p113
tp114
a(Vroom
p115
VNN
p116
tp117
a(Vtemperature
p118
VNN
p119
tp120
a(Vthey
p121
VPRP
p122
tp123
a(Vwere
p124
VVBD
p125
tp126
a(Vstill
p127
VRB
p128
tp129
a(Vgooey.
p130
VNN
p131
tp132
a(g69
VCD
p133
tp134
a(Vthrough
p135
VIN
p136
tp137
a(Vthem
p138
VPRP
p139
tp140
a(Vin
p141
VIN
p142
tp143
a(Vthe
p144
VDT
p145
tp146
a(Vfridge
p147
VNN
p148
tp149
a(Vand
p150
VCC
p151
tp152
a(VI've
p153
VNN
p154
tp155
a(Vbeen
p156
VVBN
p157
tp158
a(Vbreaking
p159
VVBG
p160
tp161
a(Voff
p162
VRP
p163
tp164
a(Vhunks
p165
VNNS
p166
tp167
a(Vever
p168
VRB
p169
tp170
a(Vsince.
p171
VVBP
p172
tp173
a(VThey
p174
VPRP
p175
tp176
a(Vtaste
p177
VVBP
p178
tp179
a(Vgood
p180
VJJ
p181
tp182
a(Vto
p183
VTO
p184
tp185
a(Vme,
p186
VNN
p187
tp188
a(Vbut
p189
VCC
p190
tp191
a(Vthe
p192
VDT
p193
tp194
a(Vchocolate
p195
VNN
p196
tp197
a(Vis
p198
VVBZ
p199
tp200
a(Vall
p201
VDT
p202
tp203
a(Vgrainy
p204
VNN
p205
tp206
a(Vafter
p207
VIN
p208
tp209
a(Vmelting
p210
VNN
p211
tp212
a(Vand
p213
VCC
p214
tp215
a(Vthen
p216
VRB
p217
tp218
a(Vsolidifying
p219
VVBG
p220
tp221
a(Vagain.
p222
VNN
p223
tp224
a(g69
VCD
p225
tp226
a(Vwon't
p227
VNN
p228
tp229
a(Vorder
p230
VNN
p231
tp232
a(Vthem
p233
VPRP
p234
tp235
a(Vonline
p236
VJJ
p237
tp238
a(Vagain,
p239
VNN
p240
tp241
a(Vbut
p242
VCC
p243
tp244
a(Vif
p245
VIN
p246
tp247
a(g69
VPRP
p248
tp249
a(Vsee
p250
VVBP
p251
tp252
a(Vthem
p253
VPRP
p254
tp255
a(Vin
p256
VIN
p257
tp258
a(g10
VDT
p259
tp260
a(Vstore
p261
VNN
p262
tp263
a(g69
VPRP
p264
tp265
a(Vwould
p266
VMD
p267
tp268
a(Vpick
p269
VVB
p270
tp271
a(Vthem
p272
VPRP
p273
tp274
a(Vup.
p275
VFW
p276
tp277
a.