(lp0
(VHalloween
p1
VNNP
p2
tp3
a(Vis
p4
VVBZ
p5
tp6
a(Vover
p7
VIN
p8
tp9
a(Vbut,
p10
VNN
p11
tp12
a(VI
p13
VPRP
p14
tp15
a(Vsent
p16
VVBD
p17
tp18
a(Va
p19
VDT
p20
tp21
a(Vbag
p22
VNN
p23
tp24
a(Vto
p25
VTO
p26
tp27
a(Vmy
p28
VPRP$
p29
tp30
a(Vdaughters
p31
VNNS
p32
tp33
a(Vclass
p34
VNN
p35
tp36
a(Vfor
p37
VIN
p38
tp39
a(Vher
p40
VPRP$
p41
tp42
a(Vshare.
p43
VNN
p44
tp45
a(VThe
p46
VDT
p47
tp48
a(Vchocolate
p49
VNN
p50
tp51
a(Vwas
p52
VVBD
p53
tp54
a(Vfresh
p55
VJJ
p56
tp57
a(Vand
p58
VCC
p59
tp60
a(Venjoyed
p61
VVBN
p62
tp63
a(Vby
p64
VIN
p65
tp66
a(Vmany.
p67
VNN
p68
tp69
a.