(lp0
(VOne
p1
VCD
p2
tp3
a(Vof
p4
VIN
p5
tp6
a(Vmy
p7
VPRP$
p8
tp9
a(Vboys
p10
VNNS
p11
tp12
a(Vneeded
p13
VVBN
p14
tp15
a(Vto
p16
VTO
p17
tp18
a(Vlose
p19
VVB
p20
tp21
a(Vsome
p22
VDT
p23
tp24
a(Vweight
p25
VNN
p26
tp27
a(Vand
p28
VCC
p29
tp30
a(Vthe
p31
VDT
p32
tp33
a(Vother
p34
VJJ
p35
tp36
a(Vdidn't.
p37
VNN
p38
tp39
a(VI
p40
VPRP
p41
tp42
a(Vput
p43
VVBP
p44
tp45
a(Vthis
p46
VDT
p47
tp48
a(Vfood
p49
VNN
p50
tp51
a(Von
p52
VIN
p53
tp54
a(Vthe
p55
VDT
p56
tp57
a(Vfloor
p58
VNN
p59
tp60
a(Vfor
p61
VIN
p62
tp63
a(Vthe
p64
VDT
p65
tp66
a(Vchubby
p67
VJJ
p68
tp69
a(Vguy,
p70
VNN
p71
tp72
a(Vand
p73
VCC
p74
tp75
a(Vthe
p76
VDT
p77
tp78
a(Vprotein-rich,
p79
VNN
p80
tp81
a(Vno
p82
VDT
p83
tp84
a(Vby-product
p85
VNN
p86
tp87
a(Vfood
p88
VNN
p89
tp90
a(Vup
p91
VRB
p92
tp93
a(Vhigher
p94
VJJR
p95
tp96
a(Vwhere
p97
VWRB
p98
tp99
a(Vonly
p100
VRB
p101
tp102
a(Vmy
p103
VPRP$
p104
tp105
a(Vskinny
p106
VJJ
p107
tp108
a(Vboy
p109
VNN
p110
tp111
a(Vcan
p112
VMD
p113
tp114
a(Vjump.
p115
VVB
p116
tp117
a(VThe
p118
VDT
p119
tp120
a(Vhigher
p121
VJJR
p122
tp123
a(Vfood
p124
VNN
p125
tp126
a(Vsits
p127
VVBZ
p128
tp129
a(Vgoing
p130
VVBG
p131
tp132
a(Vstale.
p133
VFW
p134
tp135
a(VThey
p136
VPRP
p137
tp138
a(Vboth
p139
VDT
p140
tp141
a(Vreally
p142
VRB
p143
tp144
a(Vgo
p145
VVB
p146
tp147
a(Vfor
p148
VIN
p149
tp150
a(Vthis
p151
VDT
p152
tp153
a(Vfood.
p154
VNN
p155
tp156
a(VAnd
p157
VCC
p158
tp159
a(Vmy
p160
VPRP$
p161
tp162
a(Vchubby
p163
VJJ
p164
tp165
a(Vboy
p166
VNN
p167
tp168
a(Vhas
p169
VVBZ
p170
tp171
a(Vbeen
p172
VVBN
p173
tp174
a(Vlosing
p175
VVBG
p176
tp177
a(Vabout
p178
VIN
p179
tp180
a(Van
p181
VDT
p182
tp183
a(Vounce
p184
VNN
p185
tp186
a(Va
p187
VDT
p188
tp189
a(Vweek.
p190
VNN
p191
tp192
a.