(lp0
(VMcCann's
p1
VNNP
p2
tp3
a(VOatmeal
p4
VNNP
p5
tp6
a(Vis
p7
VVBZ
p8
tp9
a(Va
p10
VDT
p11
tp12
a(Vgood
p13
VJJ
p14
tp15
a(Vquality
p16
VNN
p17
tp18
a(Vchoice.
p19
VNNP
p20
tp21
a(VOur
p22
VNNP
p23
tp24
a(Vfavorite
p25
VNN
p26
tp27
a(Vis
p28
VVBZ
p29
tp30
a(Vthe
p31
VDT
p32
tp33
a(VApples
p34
VNNPS
p35
tp36
a(Vand
p37
VCC
p38
tp39
a(VCinnamon,
p40
VNN
p41
tp42
a(Vbut
p43
VCC
p44
tp45
a(Vwe
p46
VPRP
p47
tp48
a(Vfind
p49
VVBP
p50
tp51
a(Vthat
p52
VIN
p53
tp54
a(Vnone
p55
VNN
p56
tp57
a(Vof
p58
VIN
p59
tp60
a(Vthese
p61
VDT
p62
tp63
a(Vare
p64
VVBP
p65
tp66
a(Voverly
p67
VRB
p68
tp69
a(Vsugary.
p70
VJJ
p71
tp72
a(VFor
p73
VIN
p74
tp75
a(g10
VDT
p76
tp77
a(Vgood
p78
VJJ
p79
tp80
a(Vhot
p81
VJJ
p82
tp83
a(Vbreakfast
p84
VNN
p85
tp86
a(Vin
p87
VIN
p88
tp89
a(V2
p90
VCD
p91
tp92
a(Vminutes,
p93
VNN
p94
tp95
a(Vthis
p96
VDT
p97
tp98
a(Vis
p99
VVBZ
p100
tp101
a(Vexcellent.
p102
VNN
p103
tp104
a.