(lp0
(VI
p1
VPRP
p2
tp3
a(Vknow
p4
VVBP
p5
tp6
a(Vthe
p7
VDT
p8
tp9
a(Vproduct
p10
VNN
p11
tp12
a(Vtitle
p13
VNN
p14
tp15
a(Vsays
p16
VVBZ
p17
tp18
a(VMolecular
p19
VJJ
p20
tp21
a(VGastronomy,
p22
VNN
p23
tp24
a(Vbut
p25
VCC
p26
tp27
a(Vdon't
p28
VNN
p29
tp30
a(Vlet
p31
VVBP
p32
tp33
a(Vthat
p34
VIN
p35
tp36
a(Vscare
p37
VNN
p38
tp39
a(Vyou
p40
VPRP
p41
tp42
a(Voff.
p43
VVBP
p44
tp45
a(g1
VPRP
p46
tp47
a(Vhave
p48
VVBP
p49
tp50
a(Vbeen
p51
VVBN
p52
tp53
a(Vlooking
p54
VVBG
p55
tp56
a(Vfor
p57
VIN
p58
tp59
a(Vthis
p60
VDT
p61
tp62
a(Vfor
p63
VIN
p64
tp65
a(Va
p66
VDT
p67
tp68
a(Vwhile
p69
VNN
p70
tp71
a(Vnow,
p72
VNN
p73
tp74
a(Vnot
p75
VRB
p76
tp77
a(Vfor
p78
VIN
p79
tp80
a(Vfood
p81
VNN
p82
tp83
a(Vscience,
p84
VNN
p85
tp86
a(Vbut
p87
VCC
p88
tp89
a(Vfor
p90
VIN
p91
tp92
a(Vsomething
p93
VNN
p94
tp95
a(Vmore
p96
VRBR
p97
tp98
a(Vdown
p99
VRB
p100
tp101
a(Vto
p102
VTO
p103
tp104
a(Vearth.
p105
VVB
p106
tp107
a(g1
VPRP
p108
tp109
a(Vuse
p110
VVBP
p111
tp112
a(Vit
p113
VPRP
p114
tp115
a(Vto
p116
VTO
p117
tp118
a(Vmake
p119
VVB
p120
tp121
a(Vmy
p122
VPRP$
p123
tp124
a(Vown
p125
VJJ
p126
tp127
a(Vcoffee
p128
VNN
p129
tp130
a(Vcreamer.I
p131
VNN
p132
tp133
a(Vhave
p134
VVBP
p135
tp136
a(Vto
p137
VTO
p138
tp139
a(Vhave
p140
VVB
p141
tp142
a(Vmy
p143
VPRP$
p144
tp145
a(Vcoffee
p146
VNN
p147
tp148
a(Vblonde
p149
VJJ
p150
tp151
a(Vand
p152
VCC
p153
tp154
a(Vsweet
p155
VJJ
p156
tp157
a(V-
p158
V:
p159
tp160
a(Vbut
p161
VCC
p162
tp163
a(Vthe
p164
VDT
p165
tp166
a(Vflavored
p167
VJJ
p168
tp169
a(Vcreamers
p170
VNNS
p171
tp172
a(Vare
p173
VVBP
p174
tp175
a(Vfull
p176
VJJ
p177
tp178
a(Vof
p179
VIN
p180
tp181
a(Vthe
p182
VDT
p183
tp184
a(Vbad
p185
VJJ
p186
tp187
a(Vkinds
p188
VNNS
p189
tp190
a(Vof
p191
VIN
p192
tp193
a(Vfat,
p194
VNN
p195
tp196
a(Vand
p197
VCC
p198
tp199
a(Vhonestly,
p200
VNN
p201
tp202
a(g1
VPRP
p203
tp204
a(Vhate
p205
VVBP
p206
tp207
a(Vto
p208
VTO
p209
tp210
a(Vuse
p211
VVB
p212
tp213
a(Vmanufactured
p214
VVBN
p215
tp216
a(V"food"
p217
VFW
p218
tp219
a(Vitems.
p220
VFW
p221
tp222
a(g1
VPRP
p223
tp224
a(Vreally
p225
VRB
p226
tp227
a(Vdon't
p228
VVBP
p229
tp230
a(Vthink
p231
VVB
p232
tp233
a(Vthey
p234
VPRP
p235
tp236
a(Vare
p237
VVBP
p238
tp239
a(Vgood
p240
VJJ
p241
tp242
a(Vfor
p243
VIN
p244
tp245
a(Vthe
p246
VDT
p247
tp248
a(Vbody.
p249
VNN
p250
tp251
a(VOn
p252
VIN
p253
tp254
a(Vthe
p255
VDT
p256
tp257
a(Vother
p258
VJJ
p259
tp260
a(Vhand,
p261
VNN
p262
tp263
a(g1
VPRP
p264
tp265
a(Vhate
p266
VVBP
p267
tp268
a(Vusing
p269
VVBG
p270
tp271
a(Vcold
p272
VJJ
p273
tp274
a(Vmilk
p275
VNN
p276
tp277
a(Vor
p278
VCC
p279
tp280
a(Vcream,
p281
VNN
p282
tp283
a(Vbecause
p284
VIN
p285
tp286
a(g1
VPRP
p287
tp288
a(Vlike
p289
VVBP
p290
tp291
a(VHOT
p292
VNNP
p293
tp294
a(Vcoffee.I
p295
VNNP
p296
tp297
a(Vstumbled
p298
VVBD
p299
tp300
a(Vacross
p301
VIN
p302
tp303
a(Vthis
p304
VDT
p305
tp306
a(Von
p307
VIN
p308
tp309
a(VAmazon
p310
VNNP
p311
tp312
a(Vone
p313
VCD
p314
tp315
a(Vday
p316
VNN
p317
tp318
a(Vand
p319
VCC
p320
tp321
a(Vgot
p322
VVBD
p323
tp324
a(Vthe
p325
VDT
p326
tp327
a(Videa
p328
VNN
p329
tp330
a(Vof
p331
VIN
p332
tp333
a(Vmaking
p334
VVBG
p335
tp336
a(Vmy
p337
VPRP$
p338
tp339
a(Vown
p340
VJJ
p341
tp342
a(Vcreamer.
p343
VNN
p344
tp345
a(g1
VPRP
p346
tp347
a(Valso
p348
VRB
p349
tp350
a(Vbought
p351
VVBD
p352
tp353
a(Vlow-fat
p354
VJJ
p355
tp356
a(V(non-instant)
p357
VNN
p358
tp359
a(Vmilk
p360
VNN
p361
tp362
a(Vpowder
p363
VNN
p364
tp365
a(Vand
p366
VCC
p367
tp368
a(Vregular
p369
VJJ
p370
tp371
a(Vmilk
p372
VNN
p373
tp374
a(Vpowder.
p375
VNN
p376
tp377
a(VThe
p378
VDT
p379
tp380
a(Vnon-instant
p381
VJJ
p382
tp383
a(Vlowfat
p384
VNN
p385
tp386
a(Vmilk
p387
VNN
p388
tp389
a(Vis
p390
VVBZ
p391
tp392
a(g66
VDT
p393
tp394
a(Vlittle
p395
VJJ
p396
tp397
a(Vsweeter
p398
VNN
p399
tp400
a(Vand
p401
VCC
p402
tp403
a(Vtastes
p404
VNNS
p405
tp406
a(Vfresher
p407
VJJR
p408
tp409
a(Vthan
p410
VIN
p411
tp412
a(Vregular
p413
VJJ
p414
tp415
a(Vinstant
p416
VJJ
p417
tp418
a(Vlow-fat
p419
VJJ
p420
tp421
a(Vmilk,
p422
VNN
p423
tp424
a(Vbut
p425
VCC
p426
tp427
a(Vdoes
p428
VVBZ
p429
tp430
a(Vnot
p431
VRB
p432
tp433
a(Vdissolve
p434
VVB
p435
tp436
a(Vgood
p437
VJJ
p438
tp439
a(Vin
p440
VIN
p441
tp442
a(Vcold
p443
VJJ
p444
tp445
a(Vwater
p446
VNN
p447
tp448
a(g158
g159
tp449
a(Vwhich
p450
VWDT
p451
tp452
a(Vis
p453
VVBZ
p454
tp455
a(Vnot
p456
VRB
p457
tp458
a(g66
VDT
p459
tp460
a(Vproblem
p461
VNN
p462
tp463
a(Vfor
p464
VIN
p465
tp466
a(Vhot
p467
VJJ
p468
tp469
a(Vcoffee.
p470
VNN
p471
tp472
a(VYou
p473
VPRP
p474
tp475
a(Vwill
p476
VMD
p477
tp478
a(Vhave
p479
VVB
p480
tp481
a(Vto
p482
VTO
p483
tp484
a(Vplay
p485
VVB
p486
tp487
a(Vwith
p488
VIN
p489
tp490
a(Vthe
p491
VDT
p492
tp493
a(Vratios
p494
VNNS
p495
tp496
a(g158
g159
tp497
a(g1
VPRP
p498
tp499
a(Vwould
p500
VMD
p501
tp502
a(Vnot
p503
VRB
p504
tp505
a(Vdo
p506
VVB
p507
tp508
a(Vjust
p509
VRB
p510
tp511
a(Vthe
p512
VDT
p513
tp514
a(Vheavy
p515
VJJ
p516
tp517
a(Vcream,
p518
VNN
p519
tp520
a(Vit
p521
VPRP
p522
tp523
a(Vmade
p524
VVBD
p525
tp526
a(Vthe
p527
VDT
p528
tp529
a(Vcoffee
p530
VNN
p531
tp532
a(Vtoo
p533
VRB
p534
tp535
a(Vrich.
p536
VFW
p537
tp538
a(VAlso,
p539
VFW
p540
tp541
a(g1
VPRP
p542
tp543
a(Vthink
p544
VVBP
p545
tp546
a(Vthe
p547
VDT
p548
tp549
a(Vpowder
p550
VNN
p551
tp552
a(Vis
p553
VVBZ
p554
tp555
a(Vtoo
p556
VRB
p557
tp558
a(Vexpensive
p559
VJJ
p560
tp561
a(Vto
p562
VTO
p563
tp564
a(Vjust
p565
VRB
p566
tp567
a(Vuse
p568
VVB
p569
tp570
a(Von
p571
VIN
p572
tp573
a(Vit's
p574
VFW
p575
tp576
a(Vown.
p577
VFW
p578
tp579
a(g1
VPRP
p580
tp581
a(Vlike
p582
VVBP
p583
tp584
a(Vmixing
p585
VVBG
p586
tp587
a(V1/3
p588
VCD
p589
tp590
a(Vof
p591
VIN
p592
tp593
a(Veach
p594
VDT
p595
tp596
a(Vtogether.For
p597
VFW
p598
tp599
a(Vflavoring,
p600
VFW
p601
tp602
a(g1
VPRP
p603
tp604
a(Vbough
p605
VVBP
p606
tp607
a(Vcocoa
p608
VNN
p609
tp610
a(Vbean
p611
VNN
p612
tp613
a(Vpowder,
p614
VNN
p615
tp616
a(Vvanilla
p617
VNN
p618
tp619
a(Vbean
p620
VNN
p621
tp622
a(Vpowder,
p623
VNN
p624
tp625
a(Vand
p626
VCC
p627
tp628
a(Vcaster
p629
VNN
p630
tp631
a(V(superfine)
p632
VFW
p633
tp634
a(Vsugar.
p635
VFW
p636
tp637
a(g1
VPRP
p638
tp639
a(Vmix
p640
VVBP
p641
tp642
a(Vup
p643
VRP
p644
tp645
a(Vsmall
p646
VJJ
p647
tp648
a(Vbatches
p649
VNNS
p650
tp651
a(Valong
p652
VIN
p653
tp654
a(Vwith
p655
VIN
p656
tp657
a(Vspices
p658
VNNS
p659
tp660
a(Vlike
p661
VIN
p662
tp663
a(Vcinnamon
p664
VNNP
p665
tp666
a(Vand
p667
VCC
p668
tp669
a(Vnutmeg
p670
VNN
p671
tp672
a(Vto
p673
VTO
p674
tp675
a(Vmake
p676
VVB
p677
tp678
a(Vmy
p679
VPRP$
p680
tp681
a(Vown
p682
VJJ
p683
tp684
a(Vflavored
p685
VJJ
p686
tp687
a(Vcreamers.
p688
VNN
p689
tp690
a(VIf
p691
VIN
p692
tp693
a(Vyou
p694
VPRP
p695
tp696
a(Vwanted,
p697
VVBP
p698
tp699
a(Vyou
p700
VPRP
p701
tp702
a(Vcould
p703
VMD
p704
tp705
a(Vuse
p706
VVB
p707
tp708
a(g66
VDT
p709
tp710
a(Vfake
p711
VJJ
p712
tp713
a(Vsweetner
p714
VNN
p715
tp716
a(Vpowder
p717
VNN
p718
tp719
a(Vinstead.
p720
VNN
p721
tp722
a(g1
VPRP
p723
tp724
a(Vmake
p725
VVBP
p726
tp727
a(Vup
p728
VRP
p729
tp730
a(Vsmall
p731
VJJ
p732
tp733
a(Vamounts
p734
VNNS
p735
tp736
a(Vthat
p737
VIN
p738
tp739
a(g1
VPRP
p740
tp741
a(Vstore
p742
VVBP
p743
tp744
a(Vin
p745
VIN
p746
tp747
a(Vjelly
p748
VRB
p749
tp750
a(Vcanning
p751
VVBG
p752
tp753
a(Vjars.
p754
VNN
p755
tp756
a(g1
VPRP
p757
tp758
a(Valso
p759
VRB
p760
tp761
a(Vuse
p762
VVBP
p763
tp764
a(Vmy
p765
VPRP$
p766
tp767
a(Vlittle
p768
VJJ
p769
tp770
a(Vfood
p771
VNN
p772
tp773
a(Vchopper/food
p774
VNN
p775
tp776
a(Vprocessor
p777
VNN
p778
tp779
a(Vto
p780
VTO
p781
tp782
a(Vblend
p783
VVB
p784
tp785
a(Veverything,
p786
VNN
p787
tp788
a(Vso
p789
VIN
p790
tp791
a(Vthe
p792
VDT
p793
tp794
a(Vsugar
p795
VNN
p796
tp797
a(Vis
p798
VVBZ
p799
tp800
a(Vnot
p801
VRB
p802
tp803
a(Vheavier
p804
VJJR
p805
tp806
a(Vand
p807
VCC
p808
tp809
a(Vsinks
p810
VVBZ
p811
tp812
a(Vto
p813
VTO
p814
tp815
a(Vthe
p816
VDT
p817
tp818
a(Vbottom.
p819
VNNP
p820
tp821
a(VLet
p822
VNNP
p823
tp824
a(Vit
p825
VPRP
p826
tp827
a(Vsettle
p828
VVB
p829
tp830
a(Vfor
p831
VIN
p832
tp833
a(g66
VDT
p834
tp835
a(Vbit
p836
VNN
p837
tp838
a(Vbefore
p839
VIN
p840
tp841
a(Vopening
p842
VVBG
p843
tp844
a(Vthe
p845
VDT
p846
tp847
a(Vtop
p848
VJJ
p849
tp850
a(Vthough.This
p851
VNN
p852
tp853
a(Vstuff
p854
VNN
p855
tp856
a(Vtastes
p857
VVBZ
p858
tp859
a(VWAY
p860
VNNP
p861
tp862
a(Vbetter
p863
VRBR
p864
tp865
a(Vthan
p866
VIN
p867
tp868
a(Vthe
p869
VDT
p870
tp871
a(Vstorebought
p872
VJJ
p873
tp874
a(Vcreamers
p875
VNNS
p876
tp877
a(Vand
p878
VCC
p879
tp880
a(Vit
p881
VPRP
p882
tp883
a(Vis
p884
VVBZ
p885
tp886
a(Vfun
p887
VNN
p888
tp889
a(Vto
p890
VTO
p891
tp892
a(Vexperiment
p893
VNN
p894
tp895
a(Vand
p896
VCC
p897
tp898
a(Vcome
p899
VVB
p900
tp901
a(Vup
p902
VRP
p903
tp904
a(Vwith
p905
VIN
p906
tp907
a(Vyour
p908
VPRP$
p909
tp910
a(Vown
p911
VJJ
p912
tp913
a(Vflavors.
p914
VNN
p915
tp916
a(g1
VPRP
p917
tp918
a(Vam
p919
VVBP
p920
tp921
a(Vgoing
p922
VVBG
p923
tp924
a(Vto
p925
VTO
p926
tp927
a(Vtry
p928
VVB
p929
tp930
a(Vusing
p931
VVBG
p932
tp933
a(Vsome
p934
VDT
p935
tp936
a(Vessential
p937
VJJ
p938
tp939
a(Voils
p940
VNNS
p941
tp942
a(Vnext
p943
VJJ
p944
tp945
a(Vand
p946
VCC
p947
tp948
a(Vsee
p949
VVB
p950
tp951
a(Vif
p952
VIN
p953
tp954
a(g1
VPRP
p955
tp956
a(Vcan
p957
VMD
p958
tp959
a(Vget
p960
VVB
p961
tp962
a(g66
VDT
p963
tp964
a(Vgood
p965
VJJ
p966
tp967
a(Vchocolate/orange
p968
VNN
p969
tp970
a(Vmix.All
p971
VNN
p972
tp973
a(Vof
p974
VIN
p975
tp976
a(Vthe
p977
VDT
p978
tp979
a(Vingredients
p980
VNNS
p981
tp982
a(g1
VPRP
p983
tp984
a(Vmentioned
p985
VVBD
p986
tp987
a(Vare
p988
VVBP
p989
tp990
a(Vhere
p991
VRB
p992
tp993
a(Vonline.
p994
VRB
p995
tp996
a(VTake
p997
VVB
p998
tp999
a(Vthe
p1000
VDT
p1001
tp1002
a(Vtime
p1003
VNN
p1004
tp1005
a(Vto
p1006
VTO
p1007
tp1008
a(Vexperiment.
p1009
VNNP
p1010
tp1011
a(VMaybe
p1012
VNNP
p1013
tp1014
a(Vyou
p1015
VPRP
p1016
tp1017
a(Vdon't
p1018
VVBP
p1019
tp1020
a(Vuse
p1021
VVB
p1022
tp1023
a(Vany
p1024
VDT
p1025
tp1026
a(Vlow-fat
p1027
VJJ
p1028
tp1029
a(Vmilk.
p1030
VNN
p1031
tp1032
a(VOr
p1033
VCC
p1034
tp1035
a(Vdon't
p1036
VNN
p1037
tp1038
a(Vadd
p1039
VVBP
p1040
tp1041
a(Vany
p1042
VDT
p1043
tp1044
a(Vflavorings.
p1045
VNN
p1046
tp1047
a(VIt
p1048
VPRP
p1049
tp1050
a(Vis
p1051
VVBZ
p1052
tp1053
a(Vup
p1054
VIN
p1055
tp1056
a(Vto
p1057
VTO
p1058
tp1059
a(Vyou.
p1060
VFW
p1061
tp1062
a(VAlso,
p1063
VFW
p1064
tp1065
a(Vwould
p1066
VMD
p1067
tp1068
a(Vmake
p1069
VVB
p1070
tp1071
a(Vgreat
p1072
VJJ
p1073
tp1074
a(Vhousewarming/host(ess)
p1075
VNN
p1076
tp1077
a(Vgifts.I
p1078
VNN
p1079
tp1080
a(Vam
p1081
VVBP
p1082
tp1083
a(Vsure
p1084
VJJ
p1085
tp1086
a(Vother
p1087
VJJ
p1088
tp1089
a(Vmolecular
p1090
VJJ
p1091
tp1092
a(Vpeople
p1093
VNNS
p1094
tp1095
a(Vwill
p1096
VMD
p1097
tp1098
a(Vbe
p1099
VVB
p1100
tp1101
a(Vable
p1102
VJJ
p1103
tp1104
a(Vto
p1105
VTO
p1106
tp1107
a(Vtell
p1108
VVB
p1109
tp1110
a(Vyou
p1111
VPRP
p1112
tp1113
a(Vmore
p1114
VJJR
p1115
tp1116
a(Vof
p1117
VIN
p1118
tp1119
a(Vwhat
p1120
VWP
p1121
tp1122
a(Vyou
p1123
VPRP
p1124
tp1125
a(Vcan
p1126
VMD
p1127
tp1128
a(Vdo
p1129
VVB
p1130
tp1131
a(Vwith
p1132
VIN
p1133
tp1134
a(Vit,
p1135
VNN
p1136
tp1137
a(Vand
p1138
VCC
p1139
tp1140
a(g1
VPRP
p1141
tp1142
a(Vam
p1143
VVBP
p1144
tp1145
a(Vsure
p1146
VJJ
p1147
tp1148
a(g1
VPRP
p1149
tp1150
a(Vwill
p1151
VMD
p1152
tp1153
a(Vexperiment
p1154
VNN
p1155
tp1156
a(Vwith
p1157
VIN
p1158
tp1159
a(Vit
p1160
VPRP
p1161
tp1162
a(Vin
p1163
VIN
p1164
tp1165
a(Vcooking
p1166
VNN
p1167
tp1168
a(g158
g159
tp1169
a(Vbut
p1170
VCC
p1171
tp1172
a(Vthe
p1173
VDT
p1174
tp1175
a(Vmain
p1176
VJJ
p1177
tp1178
a(Vreason
p1179
VNN
p1180
tp1181
a(g1
VPRP
p1182
tp1183
a(Vbought
p1184
VVBD
p1185
tp1186
a(Vit
p1187
VPRP
p1188
tp1189
a(Vwas
p1190
VVBD
p1191
tp1192
a(Vto
p1193
VTO
p1194
tp1195
a(Vmake
p1196
VVB
p1197
tp1198
a(Vmy
p1199
VPRP$
p1200
tp1201
a(Vown
p1202
VJJ
p1203
tp1204
a(Vcreamer
p1205
VNN
p1206
tp1207
a(Vand
p1208
VCC
p1209
tp1210
a(Vit
p1211
VPRP
p1212
tp1213
a(Vworked
p1214
VVBD
p1215
tp1216
a(Vout
p1217
VRP
p1218
tp1219
a(Vgreat.
p1220
VNN
p1221
tp1222
a.