(lp0
(VMy
p1
VPRP$
p2
tp3
a(Vdaughter
p4
VNN
p5
tp6
a(Vloves
p7
VVBZ
p8
tp9
a(Vtwizzlers
p10
VNNS
p11
tp12
a(Vand
p13
VCC
p14
tp15
a(Vthis
p16
VDT
p17
tp18
a(Vshipment
p19
VNN
p20
tp21
a(Vof
p22
VIN
p23
tp24
a(Vsix
p25
VCD
p26
tp27
a(Vpounds
p28
VNNS
p29
tp30
a(Vreally
p31
VRB
p32
tp33
a(Vhit
p34
VVBD
p35
tp36
a(Vthe
p37
VDT
p38
tp39
a(Vspot.
p40
VFW
p41
tp42
a(VIt's
p43
VFW
p44
tp45
a(Vexactly
p46
VRB
p47
tp48
a(Vwhat
p49
VWP
p50
tp51
a(Vyou
p52
VPRP
p53
tp54
a(Vwould
p55
VMD
p56
tp57
a(Vexpect...six
p58
VVB
p59
tp60
a(Vpackages
p61
VNNS
p62
tp63
a(Vof
p64
VIN
p65
tp66
a(Vstrawberry
p67
VFW
p68
tp69
a(Vtwizzlers.
p70
VFW
p71
tp72
a.