(lp0
(VThese
p1
VDT
p2
tp3
a(Vtaste
p4
VNN
p5
tp6
a(Vreally
p7
VRB
p8
tp9
a(Vgood.
p10
VVBP
p11
tp12
a(VI
p13
VPRP
p14
tp15
a(Vhave
p16
VVBP
p17
tp18
a(Vbeen
p19
VVBN
p20
tp21
a(Vpurchasing
p22
VVBG
p23
tp24
a(Va
p25
VDT
p26
tp27
a(Vdifferent
p28
VJJ
p29
tp30
a(Vbrand
p31
VNN
p32
tp33
a(Vand
p34
VCC
p35
tp36
a(Vthese
p37
VDT
p38
tp39
a(Vare
p40
VVBP
p41
tp42
a(Vvery
p43
VRB
p44
tp45
a(Vsimilar
p46
VJJ
p47
tp48
a(Vin
p49
VIN
p50
tp51
a(Vtaste
p52
VNN
p53
tp54
a(Vand
p55
VCC
p56
tp57
a(Vtexture.
p58
VNN
p59
tp60
a(g13
VPRP
p61
tp62
a(Vagree
p63
VVBP
p64
tp65
a(Vwith
p66
VIN
p67
tp68
a(Vthe
p69
VDT
p70
tp71
a(Vother
p72
VJJ
p73
tp74
a(Vreviewer
p75
VNN
p76
tp77
a(Vregarding
p78
VVBG
p79
tp80
a(Vordering
p81
VVBG
p82
tp83
a(Vin
p84
VIN
p85
tp86
a(Vthe
p87
VDT
p88
tp89
a(Vsummer.
p90
VNN
p91
tp92
a(VThere
p93
VEX
p94
tp95
a(Vis
p96
VVBZ
p97
tp98
a(Vno
p99
VDT
p100
tp101
a(Vinsulating
p102
VVBG
p103
tp104
a(Vpackaging
p105
VNN
p106
tp107
a(Vwith
p108
VIN
p109
tp110
a(Vice
p111
VNN
p112
tp113
a(Vpacks
p114
VNNS
p115
tp116
a(Vso
p117
VIN
p118
tp119
a(Vthey
p120
VPRP
p121
tp122
a(Vwill
p123
VMD
p124
tp125
a(Vmelt
p126
VVB
p127
tp128
a(Vin
p129
VIN
p130
tp131
a(Vwarm
p132
VJJ
p133
tp134
a(Vweather
p135
VNN
p136
tp137
a(Vlike
p138
VIN
p139
tp140
a(Vall
p141
VDT
p142
tp143
a(Vchocolate
p144
VJJ
p145
tp146
a(Vfood
p147
VNN
p148
tp149
a(Vitems.
p150
VNNP
p151
tp152
a(VOrder
p153
VNNP
p154
tp155
a(Vin
p156
VIN
p157
tp158
a(Vcold
p159
VJJ
p160
tp161
a(Vweather
p162
VNN
p163
tp164
a(Vand
p165
VCC
p166
tp167
a(Vbuy
p168
VVB
p169
tp170
a(Venough
p171
VRB
p172
tp173
a(Vto
p174
VTO
p175
tp176
a(Vlast!!!
p177
VNN
p178
tp179
a.