(lp0
(VI
p1
VPRP
p2
tp3
a(Vordered
p4
VVBD
p5
tp6
a(Vthis
p7
VDT
p8
tp9
a(Vfor
p10
VIN
p11
tp12
a(Vmy
p13
VPRP$
p14
tp15
a(Vwife
p16
VNN
p17
tp18
a(Vas
p19
VIN
p20
tp21
a(Vit
p22
VPRP
p23
tp24
a(Vwas
p25
VVBD
p26
tp27
a(Vreccomended
p28
VVBN
p29
tp30
a(Vby
p31
VIN
p32
tp33
a(Vour
p34
VPRP$
p35
tp36
a(Vdaughter.
p37
VNN
p38
tp39
a(VShe
p40
VNN
p41
tp42
a(Vhas
p43
VVBZ
p44
tp45
a(Vthis
p46
VDT
p47
tp48
a(Valmost
p49
VRB
p50
tp51
a(Vevery
p52
VDT
p53
tp54
a(Vmorning
p55
VNN
p56
tp57
a(Vand
p58
VCC
p59
tp60
a(Vlikes
p61
VVBZ
p62
tp63
a(Vall
p64
VDT
p65
tp66
a(Vflavors.
p67
VNNP
p68
tp69
a(VShe's
p70
VNNP
p71
tp72
a(Vhappy,
p73
VNNP
p74
tp75
a(VI'm
p76
VNNP
p77
tp78
a(Vhappy!!!McCANN'S
p79
VNNP
p80
tp81
a(VInstant
p82
VNNP
p83
tp84
a(VIrish
p85
VNNP
p86
tp87
a(VOatmeal,
p88
VNNP
p89
tp90
a(VVariety
p91
VNNP
p92
tp93
a(VPack
p94
VVB
p95
tp96
a(Vof
p97
VIN
p98
tp99
a(VRegular,
p100
VNNP
p101
tp102
a(VApples
p103
VNNP
p104
tp105
a(V&
p106
VCC
p107
tp108
a(VCinnamon,
p109
VNNP
p110
tp111
a(Vand
p112
VCC
p113
tp114
a(VMaple
p115
VNNP
p116
tp117
a(g106
VCC
p118
tp119
a(VBrown
p120
VNNP
p121
tp122
a(VSugar,
p123
VNNP
p124
tp125
a(V10-Count
p126
VNNP
p127
tp128
a(VBoxes
p129
VNNPS
p130
tp131
a(V(Pack
p132
VNN
p133
tp134
a(Vof
p135
VIN
p136
tp137
a(V6)
p138
VNN
p139
tp140
a.