(lp0
(VI
p1
VPRP
p2
tp3
a(Vhave
p4
VVBP
p5
tp6
a(Va
p7
VDT
p8
tp9
a(Vstandard
p10
VJJ
p11
tp12
a(Vpoodle
p13
VNN
p14
tp15
a(Vand
p16
VCC
p17
tp18
a(Vpomeranian
p19
VNN
p20
tp21
a(Vwho
p22
VWP
p23
tp24
a(Vboth
p25
VDT
p26
tp27
a(Vdo
p28
VVBP
p29
tp30
a(Vwonderful
p31
VJJ
p32
tp33
a(Von
p34
VIN
p35
tp36
a(Vthis
p37
VDT
p38
tp39
a(Vfood.
p40
VNN
p41
tp42
a(g1
VPRP
p43
tp44
a(Vhave
p45
VVBP
p46
tp47
a(Vswitched
p48
VVBN
p49
tp50
a(Vthem
p51
VPRP
p52
tp53
a(Vto
p54
VTO
p55
tp56
a(g7
VDT
p57
tp58
a(Vdifferent
p59
VJJ
p60
tp61
a(Vfood
p62
VNN
p63
tp64
a(V(due
p65
VNN
p66
tp67
a(Vto
p68
VTO
p69
tp70
a(Vprice)
p71
VVB
p72
tp73
a(g7
VDT
p74
tp75
a(Vcouple
p76
VNN
p77
tp78
a(Vof
p79
VIN
p80
tp81
a(Vtimes
p82
VNNS
p83
tp84
a(Vand
p85
VCC
p86
tp87
a(Vend
p88
VVB
p89
tp90
a(Vup
p91
VRP
p92
tp93
a(Vgoing
p94
VVBG
p95
tp96
a(Vright
p97
VRB
p98
tp99
a(Vback
p100
VRB
p101
tp102
a(Vto
p103
VTO
p104
tp105
a(Vnatural
p106
VJJ
p107
tp108
a(Vbalance.
p109
VNN
p110
tp111
a.