(lp0
(VMcCann's
p1
VNNP
p2
tp3
a(VInstant
p4
VNNP
p5
tp6
a(VIrish
p7
VNNP
p8
tp9
a(VOatmeal,
p10
VNNP
p11
tp12
a(VVariety
p13
VNNP
p14
tp15
a(VPack
p16
VVB
p17
tp18
a(Vof
p19
VIN
p20
tp21
a(VRegular,
p22
VNNP
p23
tp24
a(VApples
p25
VNNP
p26
tp27
a(V&
p28
VCC
p29
tp30
a(VCinnamon,
p31
VNNP
p32
tp33
a(Vand
p34
VCC
p35
tp36
a(VMaple
p37
VNNP
p38
tp39
a(g28
VCC
p40
tp41
a(VBrown
p42
VNNP
p43
tp44
a(VSugar,
p45
VNNP
p46
tp47
a(V10-Count
p48
VNNP
p49
tp50
a(VBoxes
p51
VNNPS
p52
tp53
a(V(Pack
p54
VNN
p55
tp56
a(Vof
p57
VIN
p58
tp59
a(V6)I'm
p60
VNN
p61
tp62
a(Va
p63
VDT
p64
tp65
a(Vfan
p66
VNN
p67
tp68
a(Vof
p69
VIN
p70
tp71
a(Vthe
p72
VDT
p73
tp74
a(VMcCann's
p75
VFW
p76
tp77
a(Vsteel-cut
p78
VFW
p79
tp80
a(Voats,
p81
VFW
p82
tp83
a(Vso
p84
VIN
p85
tp86
a(VI
p87
VPRP
p88
tp89
a(Vthought
p90
VVBD
p91
tp92
a(VI'd
p93
VNN
p94
tp95
a(Vgive
p96
VVBP
p97
tp98
a(Vthe
p99
VDT
p100
tp101
a(Vinstant
p102
VJJ
p103
tp104
a(Vvariety
p105
VNN
p106
tp107
a(g63
VDT
p108
tp109
a(Vtry.
p110
VNN
p111
tp112
a(g87
VPRP
p113
tp114
a(Vfound
p115
VVBD
p116
tp117
a(Vit
p118
VPRP
p119
tp120
a(Vto
p121
VTO
p122
tp123
a(Vbe
p124
VVB
p125
tp126
a(g63
VDT
p127
tp128
a(Vhardy
p129
VJJ
p130
tp131
a(Vmeal,
p132
VNN
p133
tp134
a(Vnot
p135
VRB
p136
tp137
a(Vtoo
p138
VRB
p139
tp140
a(Vsweet,
p141
VJJ
p142
tp143
a(Vand
p144
VCC
p145
tp146
a(Vgreat
p147
VJJ
p148
tp149
a(Vfor
p150
VIN
p151
tp152
a(Vfolks
p153
VNNS
p154
tp155
a(Vlike
p156
VIN
p157
tp158
a(Vme
p159
VPRP
p160
tp161
a(V(post-bariatric
p162
VJJ
p163
tp164
a(Vsurgery)
p165
VNN
p166
tp167
a(Vwho
p168
VWP
p169
tp170
a(Vneed
p171
VVBP
p172
tp173
a(Vfood
p174
VNN
p175
tp176
a(Vthat
p177
VWDT
p178
tp179
a(Vis
p180
VVBZ
p181
tp182
a(Vpalatable,
p183
VNN
p184
tp185
a(Veasily
p186
VRB
p187
tp188
a(Vdigestible,
p189
VJJ
p190
tp191
a(Vwith
p192
VIN
p193
tp194
a(Vfiber
p195
VNN
p196
tp197
a(Vbut
p198
VCC
p199
tp200
a(Vwon't
p201
VNN
p202
tp203
a(Vmake
p204
VVBP
p205
tp206
a(Vyou
p207
VPRP
p208
tp209
a(Vbloat.
p210
VVBP
p211
tp212
a.