(lp0
(VDeal
p1
VNNP
p2
tp3
a(Vwas
p4
VVBD
p5
tp6
a(Vawesome!
p7
VNNP
p8
tp9
a(VArrived
p10
VNNP
p11
tp12
a(Vbefore
p13
VIN
p14
tp15
a(VHalloween
p16
VNNP
p17
tp18
a(Vas
p19
VIN
p20
tp21
a(Vindicated
p22
VVBN
p23
tp24
a(Vand
p25
VCC
p26
tp27
a(Vwas
p28
VVBD
p29
tp30
a(Venough
p31
VJJ
p32
tp33
a(Vto
p34
VTO
p35
tp36
a(Vsatisfy
p37
VVB
p38
tp39
a(Vtrick
p40
VNN
p41
tp42
a(Vor
p43
VCC
p44
tp45
a(Vtreaters.
p46
VNN
p47
tp48
a(VI
p49
VPRP
p50
tp51
a(Vlove
p52
VVBP
p53
tp54
a(Vthe
p55
VDT
p56
tp57
a(Vquality
p58
VNN
p59
tp60
a(Vof
p61
VIN
p62
tp63
a(Vthis
p64
VDT
p65
tp66
a(Vproduct
p67
VNN
p68
tp69
a(Vand
p70
VCC
p71
tp72
a(Vit
p73
VPRP
p74
tp75
a(Vwas
p76
VVBD
p77
tp78
a(Vmuch
p79
VRB
p80
tp81
a(Vless
p82
VRBR
p83
tp84
a(Vexpensive
p85
VJJ
p86
tp87
a(Vthan
p88
VIN
p89
tp90
a(Vthe
p91
VDT
p92
tp93
a(Vlocal
p94
VJJ
p95
tp96
a(Vstore's
p97
VFW
p98
tp99
a(Vcandy.
p100
VFW
p101
tp102
a.