(lp0
(VThis
p1
VDT
p2
tp3
a(Vis
p4
VVBZ
p5
tp6
a(Vgreat
p7
VJJ
p8
tp9
a(Vdog
p10
VNN
p11
tp12
a(Vfood,
p13
VNN
p14
tp15
a(Vmy
p16
VPRP$
p17
tp18
a(Vdog
p19
VNN
p20
tp21
a(Vhas
p22
VVBZ
p23
tp24
a(Vsevers
p25
VNNS
p26
tp27
a(Vallergies
p28
VNNS
p29
tp30
a(Vand
p31
VCC
p32
tp33
a(Vthis
p34
VDT
p35
tp36
a(Vbrand
p37
VNN
p38
tp39
a(Vis
p40
VVBZ
p41
tp42
a(Vthe
p43
VDT
p44
tp45
a(Vonly
p46
VRB
p47
tp48
a(Vone
p49
VCD
p50
tp51
a(Vthat
p52
VIN
p53
tp54
a(Vwe
p55
VPRP
p56
tp57
a(Vcan
p58
VMD
p59
tp60
a(Vfeed
p61
VVB
p62
tp63
a(Vhim.
p64
VNN
p65
tp66
a.