(lp0
(VWhile
p1
VIN
p2
tp3
a(Vmy
p4
VPRP$
p5
tp6
a(Vdogs
p7
VNNS
p8
tp9
a(Vlike
p10
VIN
p11
tp12
a(Vall
p13
VDT
p14
tp15
a(Vof
p16
VIN
p17
tp18
a(Vthe
p19
VDT
p20
tp21
a(Vflavors
p22
VNNS
p23
tp24
a(Vthat
p25
VIN
p26
tp27
a(Vwe
p28
VPRP
p29
tp30
a(Vhave
p31
VVBP
p32
tp33
a(Vtried
p34
VVBN
p35
tp36
a(Vof
p37
VIN
p38
tp39
a(Vthis
p40
VDT
p41
tp42
a(Vdog
p43
VNN
p44
tp45
a(Vfood,
p46
VNN
p47
tp48
a(Vfor
p49
VIN
p50
tp51
a(Vsome
p52
VDT
p53
tp54
a(Vreason
p55
VNN
p56
tp57
a(Vtheir
p58
VPRP$
p59
tp60
a(Vitching
p61
VNN
p62
tp63
a(Vincreased
p64
VVBD
p65
tp66
a(Vwhen
p67
VWRB
p68
tp69
a(VI
p70
VPRP
p71
tp72
a(Vtried
p73
VVBD
p74
tp75
a(Vthe
p76
VDT
p77
tp78
a(Vlamb
p79
VNN
p80
tp81
a(Vand
p82
VCC
p83
tp84
a(Vrice.
p85
VNN
p86
tp87
a(g70
VPRP
p88
tp89
a(Vhave
p90
VVBP
p91
tp92
a(Vsome
p93
VDT
p94
tp95
a(Vvery
p96
VRB
p97
tp98
a(Vitchy
p99
VJJ
p100
tp101
a(Vdogs
p102
VNNS
p103
tp104
a(Vand
p105
VCC
p106
tp107
a(Vam
p108
VRB
p109
tp110
a(Vgiving
p111
VVBG
p112
tp113
a(Vthem
p114
VPRP
p115
tp116
a(Va
p117
VDT
p118
tp119
a(Vlimited
p120
VJJ
p121
tp122
a(Vingredient
p123
VNN
p124
tp125
a(Vdog
p126
VNN
p127
tp128
a(Vfood
p129
VNN
p130
tp131
a(Vto
p132
VTO
p133
tp134
a(Vtry
p135
VVB
p136
tp137
a(Vto
p138
VTO
p139
tp140
a(Vhelp.
p141
VVB
p142
tp143
a(VThe
p144
VDT
p145
tp146
a(Vduck
p147
VNN
p148
tp149
a(Vand
p150
VCC
p151
tp152
a(Vsweet
p153
VJJ
p154
tp155
a(Vpotato
p156
VNN
p157
tp158
a(Vcut
p159
VVBD
p160
tp161
a(Vdown
p162
VRP
p163
tp164
a(Von
p165
VIN
p166
tp167
a(Vthe
p168
VDT
p169
tp170
a(Vitching
p171
VVBG
p172
tp173
a(Vsignificantly,
p174
VNN
p175
tp176
a(Vbut
p177
VCC
p178
tp179
a(Vwhen
p180
VWRB
p181
tp182
a(Vwe
p183
VPRP
p184
tp185
a(Vtried
p186
VVBD
p187
tp188
a(Vlamb
p189
VNN
p190
tp191
a(Vand
p192
VCC
p193
tp194
a(Vrice
p195
VNN
p196
tp197
a(Vthey
p198
VPRP
p199
tp200
a(Vstarted
p201
VVBD
p202
tp203
a(Vitching
p204
VVBG
p205
tp206
a(Vmore
p207
VRBR
p208
tp209
a(Vonce
p210
VRB
p211
tp212
a(Vagain.
p213
VNNP
p214
tp215
a(g70
VNNP
p216
tp217
a(Vlike
p218
VIN
p219
tp220
a(VNatural
p221
VNNP
p222
tp223
a(VBalance
p224
VNNP
p225
tp226
a(Vfor
p227
VIN
p228
tp229
a(Vthe
p230
VDT
p231
tp232
a(Vquality
p233
VNN
p234
tp235
a(Vingredients.
p236
VNN
p237
tp238
a.