(lp0
(VI
p1
VNN
p2
tp3
a(Vroast
p4
VNN
p5
tp6
a(Vat
p7
VIN
p8
tp9
a(Vhome
p10
VNN
p11
tp12
a(Vwith
p13
VIN
p14
tp15
a(Va
p16
VDT
p17
tp18
a(Vstove-top
p19
VJJ
p20
tp21
a(Vpopcorn
p22
VNN
p23
tp24
a(Vpopper
p25
VFW
p26
tp27
a(V(but
p28
VFW
p29
tp30
a(g1
VPRP
p31
tp32
a(Vdo
p33
VVBP
p34
tp35
a(Vit
p36
VPRP
p37
tp38
a(Voutside,
p39
VNN
p40
tp41
a(Vof
p42
VIN
p43
tp44
a(Vcourse).
p45
VNN
p46
tp47
a(VThese
p48
VDT
p49
tp50
a(Vbeans
p51
VNNS
p52
tp53
a(V(Coffee
p54
VVBP
p55
tp56
a(VBean
p57
VNNP
p58
tp59
a(VDirect
p60
VNNP
p61
tp62
a(VGreen
p63
VNNP
p64
tp65
a(VMexican
p66
VNNP
p67
tp68
a(VAltura)
p69
VNNP
p70
tp71
a(Vseem
p72
VVBP
p73
tp74
a(Vto
p75
VTO
p76
tp77
a(Vbe
p78
VVB
p79
tp80
a(Vwell-suited
p81
VJJ
p82
tp83
a(Vfor
p84
VIN
p85
tp86
a(Vthis
p87
VDT
p88
tp89
a(Vmethod.
p90
VNN
p91
tp92
a(VThe
p93
VDT
p94
tp95
a(Vfirst
p96
VJJ
p97
tp98
a(Vand
p99
VCC
p100
tp101
a(Vsecond
p102
VJJ
p103
tp104
a(Vcracks
p105
VNNS
p106
tp107
a(Vare
p108
VVBP
p109
tp110
a(Vdistinct,
p111
VNN
p112
tp113
a(Vand
p114
VCC
p115
tp116
a(VI've
p117
VNN
p118
tp119
a(Vroasted
p120
VJJ
p121
tp122
a(Vthe
p123
VDT
p124
tp125
a(Vbeans
p126
VNNS
p127
tp128
a(Vfrom
p129
VIN
p130
tp131
a(Vmedium
p132
VNN
p133
tp134
a(Vto
p135
VTO
p136
tp137
a(Vslightly
p138
VRB
p139
tp140
a(Vdark
p141
VJJ
p142
tp143
a(Vwith
p144
VIN
p145
tp146
a(Vgreat
p147
VJJ
p148
tp149
a(Vresults
p150
VNNS
p151
tp152
a(Vevery
p153
VDT
p154
tp155
a(Vtime.
p156
VNN
p157
tp158
a(VThe
p159
VDT
p160
tp161
a(Varoma
p162
VNN
p163
tp164
a(Vis
p165
VVBZ
p166
tp167
a(Vstrong
p168
VJJ
p169
tp170
a(Vand
p171
VCC
p172
tp173
a(Vpersistent.
p174
VNN
p175
tp176
a(VThe
p177
VDT
p178
tp179
a(Vtaste
p180
VNN
p181
tp182
a(Vis
p183
VVBZ
p184
tp185
a(Vsmooth,
p186
VFW
p187
tp188
a(Vvelvety,
p189
VFW
p190
tp191
a(Vyet
p192
VRB
p193
tp194
a(Vlively.
p195
VNN
p196
tp197
a.