(lp0
(VIf
p1
VIN
p2
tp3
a(Vyou
p4
VPRP
p5
tp6
a(Vare
p7
VVBP
p8
tp9
a(Vlooking
p10
VVBG
p11
tp12
a(Vfor
p13
VIN
p14
tp15
a(Vthe
p16
VDT
p17
tp18
a(Vsecret
p19
VJJ
p20
tp21
a(Vingredient
p22
VNN
p23
tp24
a(Vin
p25
VIN
p26
tp27
a(VRobitussin
p28
VNNP
p29
tp30
a(VI
p31
VPRP
p32
tp33
a(Vbelieve
p34
VVBP
p35
tp36
a(g31
VPRP
p37
tp38
a(Vhave
p39
VVBP
p40
tp41
a(Vfound
p42
VVBN
p43
tp44
a(Vit.
p45
VNN
p46
tp47
a(g31
VPRP
p48
tp49
a(Vgot
p50
VVBD
p51
tp52
a(Vthis
p53
VDT
p54
tp55
a(Vin
p56
VIN
p57
tp58
a(Vaddition
p59
VNN
p60
tp61
a(Vto
p62
VTO
p63
tp64
a(Vthe
p65
VDT
p66
tp67
a(VRoot
p68
VNN
p69
tp70
a(VBeer
p71
VNNP
p72
tp73
a(VExtract
p74
VNN
p75
tp76
a(g31
VPRP
p77
tp78
a(Vordered
p79
VVBD
p80
tp81
a(V(which
p82
VNN
p83
tp84
a(Vwas
p85
VVBD
p86
tp87
a(Vgood)
p88
VNN
p89
tp90
a(Vand
p91
VCC
p92
tp93
a(Vmade
p94
VVBD
p95
tp96
a(Vsome
p97
VDT
p98
tp99
a(Vcherry
p100
VJJ
p101
tp102
a(Vsoda.
p103
VNN
p104
tp105
a(VThe
p106
VDT
p107
tp108
a(Vflavor
p109
VNN
p110
tp111
a(Vis
p112
VVBZ
p113
tp114
a(Vvery
p115
VRB
p116
tp117
a(Vmedicinal.
p118
VJJ
p119
tp120
a.