(lp0
(VWe
p1
VPRP
p2
tp3
a(Vhave
p4
VVBP
p5
tp6
a(Vthree
p7
VCD
p8
tp9
a(Vdogs
p10
VNNS
p11
tp12
a(Vand
p13
VCC
p14
tp15
a(Vall
p16
VDT
p17
tp18
a(Vof
p19
VIN
p20
tp21
a(Vthem
p22
VPRP
p23
tp24
a(Vlove
p25
VVBP
p26
tp27
a(Vthis
p28
VDT
p29
tp30
a(Vfood!
p31
VNN
p32
tp33
a(VWe
p34
VPRP
p35
tp36
a(Vbought
p37
VVBD
p38
tp39
a(Vit
p40
VPRP
p41
tp42
a(Vspecifically
p43
VRB
p44
tp45
a(Vfor
p46
VIN
p47
tp48
a(Vone
p49
VCD
p50
tp51
a(Vof
p52
VIN
p53
tp54
a(Vour
p55
VPRP$
p56
tp57
a(Vdogs
p58
VNNS
p59
tp60
a(Vwho
p61
VWP
p62
tp63
a(Vhas
p64
VVBZ
p65
tp66
a(Vfood
p67
VNN
p68
tp69
a(Vallergies
p70
VNNS
p71
tp72
a(Vand
p73
VCC
p74
tp75
a(Vit
p76
VPRP
p77
tp78
a(Vworks
p79
VVBZ
p80
tp81
a(Vgreat
p82
VJJ
p83
tp84
a(Vfor
p85
VIN
p86
tp87
a(Vhim,
p88
VNN
p89
tp90
a(Vno
p91
VDT
p92
tp93
a(Vmore
p94
VRBR
p95
tp96
a(Vhot
p97
VJJ
p98
tp99
a(Vspots
p100
VNNS
p101
tp102
a(Vor
p103
VCC
p104
tp105
a(Vtummy
p106
VFW
p107
tp108
a(Vproblems.I
p109
VFW
p110
tp111
a(VLOVE
p112
VNN
p113
tp114
a(Vthat
p115
VIN
p116
tp117
a(Vit
p118
VPRP
p119
tp120
a(Vships
p121
VNNS
p122
tp123
a(Vright
p124
VJJ
p125
tp126
a(Vto
p127
VTO
p128
tp129
a(Vour
p130
VPRP$
p131
tp132
a(Vdoor
p133
VNN
p134
tp135
a(Vwith
p136
VIN
p137
tp138
a(Vfree
p139
VJJ
p140
tp141
a(Vshipping.
p142
VNN
p143
tp144
a.