(lp0
(VNatural
p1
VNNP
p2
tp3
a(VBalance
p4
VNNP
p5
tp6
a(VDry
p7
VNNP
p8
tp9
a(VDog
p10
VNNP
p11
tp12
a(VFood
p13
VNNP
p14
tp15
a(VLamb
p16
VNNP
p17
tp18
a(VMeal
p19
VNNP
p20
tp21
a(Vand
p22
VCC
p23
tp24
a(VBrown
p25
VNNP
p26
tp27
a(VRice
p28
VNNP
p29
tp30
a(VRecipe
p31
VNNP
p32
tp33
a(Vdid
p34
VVBD
p35
tp36
a(Vwonders
p37
VNNS
p38
tp39
a(Vfor
p40
VIN
p41
tp42
a(Vmy
p43
VPRP$
p44
tp45
a(VJack
p46
VNNP
p47
tp48
a(VRussell.
p49
VNNP
p50
tp51
a(VShe
p52
VPRP
p53
tp54
a(Vhas
p55
VVBZ
p56
tp57
a(Vawful
p58
VJJ
p59
tp60
a(Vfood
p61
VNN
p62
tp63
a(Vallergy's
p64
VNNS
p65
tp66
a(Vand
p67
VCC
p68
tp69
a(Vthis
p70
VDT
p71
tp72
a(Vfood
p73
VNN
p74
tp75
a(Vwas
p76
VVBD
p77
tp78
a(Vour
p79
VPRP$
p80
tp81
a(Vlast
p82
VJJ
p83
tp84
a(Vhope
p85
VNN
p86
tp87
a(Vbecause
p88
VIN
p89
tp90
a(Vit
p91
VPRP
p92
tp93
a(Vwas
p94
VVBD
p95
tp96
a(Vthe
p97
VDT
p98
tp99
a(Vlast
p100
VJJ
p101
tp102
a(Vfood
p103
VNN
p104
tp105
a(Vwe
p106
VPRP
p107
tp108
a(Vcould
p109
VMD
p110
tp111
a(Vfind
p112
VVB
p113
tp114
a(Vthat
p115
VIN
p116
tp117
a(Vdidn't
p118
VNN
p119
tp120
a(Vhave
p121
VVBP
p122
tp123
a(VSOMETHING
p124
VNNP
p125
tp126
a(Vin
p127
VIN
p128
tp129
a(Vit
p130
VPRP
p131
tp132
a(Vthat
p133
VIN
p134
tp135
a(Vshe
p136
VPRP
p137
tp138
a(Vwas
p139
VVBD
p140
tp141
a(Vallergic
p142
VJJ
p143
tp144
a(Vto.
p145
VNN
p146
tp147
a(VShe
p148
VNN
p149
tp150
a(Vhas
p151
VVBZ
p152
tp153
a(Vno
p154
VDT
p155
tp156
a(Vproblem
p157
VNN
p158
tp159
a(Veating
p160
VVBG
p161
tp162
a(Vit
p163
VPRP
p164
tp165
a(Vdry
p166
VJJ
p167
tp168
a(Vbut
p169
VCC
p170
tp171
a(Vnormally
p172
VRB
p173
tp174
a(VI
p175
VPRP
p176
tp177
a(Vmix
p178
VVBP
p179
tp180
a(Vthe
p181
VDT
p182
tp183
a(VNatural
p184
VNNP
p185
tp186
a(VBalance
p187
VNNP
p188
tp189
a(VDry
p190
VNNP
p191
tp192
a(VLamb
p193
VNNP
p194
tp195
a(Vand
p196
VCC
p197
tp198
a(VBrown
p199
VNNP
p200
tp201
a(VRice
p202
VNNP
p203
tp204
a(Vwith
p205
VIN
p206
tp207
a(Vthe
p208
VDT
p209
tp210
a(VNatural
p211
VNNP
p212
tp213
a(VBalance
p214
VNNP
p215
tp216
a(VWet
p217
VNNP
p218
tp219
a(VLamb
p220
VNNP
p221
tp222
a(Vand
p223
VCC
p224
tp225
a(VBrown
p226
VNNP
p227
tp228
a(VRice..
p229
VNNP
p230
tp231
a(Vshe
p232
VPRP
p233
tp234
a(Vseems
p235
VVBZ
p236
tp237
a(Vto
p238
VTO
p239
tp240
a(Vlike
p241
VVB
p242
tp243
a(Vthat
p244
VDT
p245
tp246
a(Vbetter.
p247
VNN
p248
tp249
a(VWe
p250
VPRP
p251
tp252
a(Vstarted
p253
VVBD
p254
tp255
a(Vfeeding
p256
VVBG
p257
tp258
a(Vit
p259
VPRP
p260
tp261
a(Vto
p262
VTO
p263
tp264
a(Vour
p265
VPRP$
p266
tp267
a(Vother
p268
VJJ
p269
tp270
a(Vdog
p271
VNN
p272
tp273
a(V(a
p274
VFW
p275
tp276
a(VBichon)
p277
VFW
p278
tp279
a(Vtoo
p280
VRB
p281
tp282
a(Vand
p283
VCC
p284
tp285
a(Vshe
p286
VPRP
p287
tp288
a(Vloves
p289
VVBZ
p290
tp291
a(Vit.
p292
VFW
p293
tp294
a(VIf
p295
VIN
p296
tp297
a(Vyour
p298
VPRP$
p299
tp300
a(Vdog
p301
VNN
p302
tp303
a(Vhas
p304
VVBZ
p305
tp306
a(Vallergy's
p307
VNNS
p308
tp309
a(Vor
p310
VCC
p311
tp312
a(Vstomach
p313
VNN
p314
tp315
a(Vissue..
p316
VNN
p317
tp318
a(Vor
p319
VCC
p320
tp321
a(Vif
p322
VIN
p323
tp324
a(Vyou
p325
VPRP
p326
tp327
a(Vwant
p328
VVBP
p329
tp330
a(Vyour
p331
VPRP$
p332
tp333
a(Vdog
p334
VNN
p335
tp336
a(Vto
p337
VTO
p338
tp339
a(Veat
p340
VVB
p341
tp342
a(Vbetter
p343
VJJR
p344
tp345
a(Vfood--
p346
VNN
p347
tp348
a(Vthis
p349
VDT
p350
tp351
a(Vis
p352
VVBZ
p353
tp354
a(Vit!
p355
VNNP
p356
tp357
a(VYou
p358
VPRP
p359
tp360
a(Vwill
p361
VMD
p362
tp363
a(Vsee
p364
VVB
p365
tp366
a(Va
p367
VDT
p368
tp369
a(Vdifference
p370
VNN
p371
tp372
a(Vin
p373
VIN
p374
tp375
a(Vyour
p376
VPRP$
p377
tp378
a(Vpet.
p379
VNN
p380
tp381
a.