(lp0
(VIf
p1
VIN
p2
tp3
a(Vyou're
p4
VNN
p5
tp6
a(Vimpulsive
p7
VJJ
p8
tp9
a(Vlike
p10
VIN
p11
tp12
a(Vme,
p13
VNN
p14
tp15
a(Vthen
p16
VRB
p17
tp18
a(V$6
p19
VCD
p20
tp21
a(Vis
p22
VVBZ
p23
tp24
a(Vok.
p25
VFW
p26
tp27
a(VDon't
p28
VFW
p29
tp30
a(Vget
p31
VVB
p32
tp33
a(Vme
p34
VPRP
p35
tp36
a(Vwrong,
p37
VVB
p38
tp39
a(Vthe
p40
VDT
p41
tp42
a(Vquality
p43
VNN
p44
tp45
a(Vof
p46
VIN
p47
tp48
a(Vthese
p49
VDT
p50
tp51
a(Vbabies
p52
VNNS
p53
tp54
a(Vis
p55
VVBZ
p56
tp57
a(Vvery
p58
VRB
p59
tp60
a(Vgood
p61
VJJ
p62
tp63
a(Vand
p64
VCC
p65
tp66
a(VI
p67
VPRP
p68
tp69
a(Vhave
p70
VVBP
p71
tp72
a(Vno
p73
VDT
p74
tp75
a(Vcomplaints.
p76
VNN
p77
tp78
a(VBut
p79
VCC
p80
tp81
a(Vin
p82
VIN
p83
tp84
a(Vretrospect,
p85
VNN
p86
tp87
a(Vthe
p88
VDT
p89
tp90
a(Vprice
p91
VNN
p92
tp93
a(Vis
p94
VVBZ
p95
tp96
a(Va
p97
VDT
p98
tp99
a(Vlittle
p100
VJJ
p101
tp102
a(Vridiculous
p103
VJJ
p104
tp105
a(V(esp.
p106
VNN
p107
tp108
a(Vwhen
p109
VWRB
p110
tp111
a(Vyou
p112
VPRP
p113
tp114
a(Vadd
p115
VVBP
p116
tp117
a(Von
p118
VIN
p119
tp120
a(Vthe
p121
VDT
p122
tp123
a(Vshipping).
p124
VNN
p125
tp126
a.