(lp0
(VGrape
p1
VNN
p2
tp3
a(Vgummy
p4
VNN
p5
tp6
a(Vbears
p7
VNNS
p8
tp9
a(Vare
p10
VVBP
p11
tp12
a(Vhard
p13
VJJ
p14
tp15
a(Vto
p16
VTO
p17
tp18
a(Vfind
p19
VVB
p20
tp21
a(Vin
p22
VIN
p23
tp24
a(Vmy
p25
VPRP$
p26
tp27
a(Varea.
p28
VNN
p29
tp30
a(VIn
p31
VIN
p32
tp33
a(Vfact
p34
VNN
p35
tp36
a(Vpretty
p37
VRB
p38
tp39
a(Vmuch
p40
VJJ
p41
tp42
a(Vanyone
p43
VNN
p44
tp45
a(VI
p46
VPRP
p47
tp48
a(Vtalk
p49
VVBP
p50
tp51
a(Vto
p52
VTO
p53
tp54
a(Vabout
p55
VRB
p56
tp57
a(Vgrape
p58
VVB
p59
tp60
a(Vgummy
p61
VJJ
p62
tp63
a(Vbears
p64
VNNS
p65
tp66
a(Vthey
p67
VPRP
p68
tp69
a(Vthink
p70
VVBP
p71
tp72
a(VI'm
p73
VFW
p74
tp75
a(Vlying.
p76
VFW
p77
tp78
a(VSo
p79
VIN
p80
tp81
a(g46
VPRP
p82
tp83
a(Vbought
p84
VVBD
p85
tp86
a(V10lbs...
p87
VCD
p88
tp89
a(V:
p90
g90
tp91
a(V)
p92
VCD
p93
tp94
a(VThese
p95
VDT
p96
tp97
a(Vbears
p98
VNNS
p99
tp100
a(Vare
p101
VVBP
p102
tp103
a(Va
p104
VDT
p105
tp106
a(Vlittle
p107
VJJ
p108
tp109
a(Vbit
p110
VNN
p111
tp112
a(Vbigger
p113
VJJR
p114
tp115
a(Vthen
p116
VRB
p117
tp118
a(Vthe
p119
VDT
p120
tp121
a(Vother
p122
VJJ
p123
tp124
a(Vbrands
p125
VNNS
p126
tp127
a(Vand
p128
VCC
p129
tp130
a(Vhave
p131
VVBP
p132
tp133
a(Vkind
p134
VNN
p135
tp136
a(Vof
p137
VIN
p138
tp139
a(Vsour
p140
VJJ
p141
tp142
a(Vkick,
p143
VNN
p144
tp145
a(Vbut
p146
VCC
p147
tp148
a(Vnothing
p149
VNN
p150
tp151
a(Vto
p152
VTO
p153
tp154
a(Vstrong.
p155
VNN
p156
tp157
a(g46
VCD
p158
tp159
a(Vlove
p160
VNN
p161
tp162
a(Vgrape
p163
VNN
p164
tp165
a(Vflavored
p166
VJJ
p167
tp168
a(Vcandy/soda
p169
VNN
p170
tp171
a(Vand
p172
VCC
p173
tp174
a(Vthese
p175
VDT
p176
tp177
a(Vare
p178
VVBP
p179
tp180
a(Vpretty
p181
VJJ
p182
tp183
a(Vgood.
p184
VNN
p185
tp186
a(VThere
p187
VEX
p188
tp189
a(Vis
p190
VVBZ
p191
tp192
a(Vanother
p193
VDT
p194
tp195
a(Vcompany
p196
VNN
p197
tp198
a(Vthat
p199
VIN
p200
tp201
a(Vmakes
p202
VNNS
p203
tp204
a(Vgrape
p205
VVBP
p206
tp207
a(Vgummy
p208
VJJ
p209
tp210
a(Vbears
p211
VNNS
p212
tp213
a(Vthat
p214
VWDT
p215
tp216
a(Vare
p217
VVBP
p218
tp219
a(g104
VDT
p220
tp221
a(Vlittle
p222
VJJ
p223
tp224
a(Vbit
p225
VNN
p226
tp227
a(Vbetter
p228
VRBR
p229
tp230
a(Vin
p231
VIN
p232
tp233
a(Vmy
p234
VPRP$
p235
tp236
a(Vopinion,
p237
VNN
p238
tp239
a(Vbut
p240
VCC
p241
tp242
a(Vthese
p243
VDT
p244
tp245
a(Vare
p246
VVBP
p247
tp248
a(Vwell
p249
VRB
p250
tp251
a(Vworth
p252
VJJ
p253
tp254
a(Vit
p255
VPRP
p256
tp257
a(Vfor
p258
VIN
p259
tp260
a(Vthe
p261
VDT
p262
tp263
a(Vprice.
p264
VNN
p265
tp266
a(g46
VPRP
p267
tp268
a(Vlike
p269
VVBP
p270
tp271
a(Vto
p272
VTO
p273
tp274
a(Vuse
p275
VVB
p276
tp277
a(Vthe
p278
VDT
p279
tp280
a(Vgummy
p281
VJJ
p282
tp283
a(Vbears
p284
VNNS
p285
tp286
a(Vin
p287
VIN
p288
tp289
a(Vhome
p290
VNN
p291
tp292
a(Vmade
p293
VVBD
p294
tp295
a(VPopsicles
p296
VNNS
p297
tp298
a(Vwith
p299
VIN
p300
tp301
a(Vflavored
p302
VJJ
p303
tp304
a(Vsports
p305
VNNS
p306
tp307
a(Vdrink.
p308
VVBP
p309
tp310
a(VThe
p311
VDT
p312
tp313
a(Vsalt
p314
VNN
p315
tp316
a(Vin
p317
VIN
p318
tp319
a(Vthe
p320
VDT
p321
tp322
a(Vsports
p323
VNNS
p324
tp325
a(Vdrink
p326
VNN
p327
tp328
a(Vmakes
p329
VVBZ
p330
tp331
a(Vfor
p332
VIN
p333
tp334
a(Vsofter
p335
VJJR
p336
tp337
a(Vpopsicles,
p338
VNN
p339
tp340
a(Vand
p341
VCC
p342
tp343
a(Vthe
p344
VDT
p345
tp346
a(Vgummy
p347
VJJ
p348
tp349
a(Vbears
p350
VNNS
p351
tp352
a(Vare
p353
VVBP
p354
tp355
a(Vawesome
p356
VJJ
p357
tp358
a(Vfrozen.
p359
VNN
p360
tp361
a(VThey
p362
VPRP
p363
tp364
a(Vare
p365
VVBP
p366
tp367
a(Vdelicious!
p368
VNN
p369
tp370
a.