(lp0
(VMy
p1
VPRP$
p2
tp3
a(V1-1/2
p4
VCD
p5
tp6
a(Vyear
p7
VNN
p8
tp9
a(Vold
p10
VJJ
p11
tp12
a(Vbasenji/jack
p13
VNN
p14
tp15
a(Vrussell
p16
VNN
p17
tp18
a(Vmix
p19
VNN
p20
tp21
a(Vloves
p22
VVBZ
p23
tp24
a(Vthis
p25
VDT
p26
tp27
a(Vdog
p28
VNN
p29
tp30
a(Vfood.
p31
VFW
p32
tp33
a(VHe's
p34
VFW
p35
tp36
a(Vbeen
p37
VVBN
p38
tp39
a(Vnoticeably
p40
VRB
p41
tp42
a(Vhealthier
p43
VRBR
p44
tp45
a(Vand
p46
VCC
p47
tp48
a(Vmore
p49
VRBR
p50
tp51
a(Venergetic
p52
VJJ
p53
tp54
a(Vsince
p55
VIN
p56
tp57
a(VI
p58
VPRP
p59
tp60
a(Vswitched
p61
VVBD
p62
tp63
a(Vhim
p64
VPRP
p65
tp66
a(Vover
p67
VRP
p68
tp69
a(Vfrom
p70
VIN
p71
tp72
a(Vthe
p73
VDT
p74
tp75
a(Vstandard
p76
VJJ
p77
tp78
a(Vdog
p79
VNN
p80
tp81
a(Vfoods
p82
VNNS
p83
tp84
a(Vearlier
p85
VRBR
p86
tp87
a(Vthis
p88
VDT
p89
tp90
a(Vyear.
p91
VNN
p92
tp93
a(VDespite
p94
VIN
p95
tp96
a(Vthe
p97
VDT
p98
tp99
a(Vhigher
p100
VJJR
p101
tp102
a(Vcost
p103
VNN
p104
tp105
a(Vof
p106
VIN
p107
tp108
a(Vnatural
p109
VJJ
p110
tp111
a(Vdog
p112
VNN
p113
tp114
a(Vfoods,
p115
VNN
p116
tp117
a(g58
VPRP
p118
tp119
a(Vfind
p120
VVBP
p121
tp122
a(Vthat
p123
VIN
p124
tp125
a(Vhe
p126
VPRP
p127
tp128
a(Veats
p129
VVBZ
p130
tp131
a(Vsignificantly
p132
VRB
p133
tp134
a(Vless
p135
VJJR
p136
tp137
a(Vof
p138
VIN
p139
tp140
a(Vthe
p141
VDT
p142
tp143
a(VNatural
p144
VNNP
p145
tp146
a(VBalance
p147
VNNP
p148
tp149
a(Vdog
p150
VNN
p151
tp152
a(Vfoods
p153
VNNS
p154
tp155
a(Vand
p156
VCC
p157
tp158
a(Vstill
p159
VRB
p160
tp161
a(Vstays
p162
VVBZ
p163
tp164
a(Vhappy
p165
VJJ
p166
tp167
a(Vand
p168
VCC
p169
tp170
a(Vfull.
p171
VNN
p172
tp173
a(VOn
p174
VIN
p175
tp176
a(Vthe
p177
VDT
p178
tp179
a(Vnormal
p180
VJJ
p181
tp182
a(Vdog
p183
VNN
p184
tp185
a(Vfoods,
p186
VFW
p187
tp188
a(Vhe'd
p189
VFW
p190
tp191
a(Veat
p192
VVB
p193
tp194
a(Vup
p195
VIN
p196
tp197
a(Vto
p198
VTO
p199
tp200
a(V3
p201
VCD
p202
tp203
a(Vcups
p204
VNNS
p205
tp206
a(Vof
p207
VIN
p208
tp209
a(Vdog
p210
VNN
p211
tp212
a(Vfood
p213
VNN
p214
tp215
a(Va
p216
VDT
p217
tp218
a(Vday
p219
VNN
p220
tp221
a(V(the
p222
VNN
p223
tp224
a(Vrecommended
p225
VVBD
p226
tp227
a(Vserving
p228
VVBG
p229
tp230
a(Vfor
p231
VIN
p232
tp233
a(Vhis
p234
VPRP$
p235
tp236
a(Vsize),
p237
VNN
p238
tp239
a(Vwhereas
p240
VIN
p241
tp242
a(Vhe
p243
VPRP
p244
tp245
a(Vonly
p246
VRB
p247
tp248
a(Veats
p249
VVBZ
p250
tp251
a(Vabout
p252
VIN
p253
tp254
a(V1
p255
VCD
p256
tp257
a(Vcup
p258
VNN
p259
tp260
a(Vto
p261
VTO
p262
tp263
a(V1-1/2
p264
VCD
p265
tp266
a(Vcup
p267
VNN
p268
tp269
a(Vof
p270
VIN
p271
tp272
a(Vthe
p273
VDT
p274
tp275
a(VNatural
p276
VNNP
p277
tp278
a(VBalance
p279
VNNP
p280
tp281
a(Vdog
p282
VNN
p283
tp284
a(Vfood
p285
VNN
p286
tp287
a(g216
VDT
p288
tp289
a(Vday.
p290
VNN
p291
tp292
a(VWhen
p293
VWRB
p294
tp295
a(Vyou
p296
VPRP
p297
tp298
a(Vtake
p299
VVBP
p300
tp301
a(Vthis
p302
VDT
p303
tp304
a(Vinto
p305
VIN
p306
tp307
a(Vaccount,
p308
VFW
p309
tp310
a(Vyou're
p311
VFW
p312
tp313
a(Vactually
p314
VRB
p315
tp316
a(Vgetting
p317
VVBG
p318
tp319
a(Vmore
p320
VJJR
p321
tp322
a(V"bang
p323
VNN
p324
tp325
a(Vfor
p326
VIN
p327
tp328
a(Vyour
p329
VPRP$
p330
tp331
a(Vbuck"
p332
VNN
p333
tp334
a(Vwith
p335
VIN
p336
tp337
a(Vthe
p338
VDT
p339
tp340
a(Vnatural
p341
VJJ
p342
tp343
a(Vdog
p344
VNN
p345
tp346
a(Vfoods
p347
VNNS
p348
tp349
a(Vsince
p350
VIN
p351
tp352
a(Vyou
p353
VPRP
p354
tp355
a(Vdon't
p356
VVBP
p357
tp358
a(Vhave
p359
VVB
p360
tp361
a(Vto
p362
VTO
p363
tp364
a(Vbuy
p365
VVB
p366
tp367
a(Vas
p368
VRB
p369
tp370
a(Vmuch
p371
VJJ
p372
tp373
a(Vto
p374
VTO
p375
tp376
a(Vlast
p377
VVB
p378
tp379
a(Vjust
p380
VRB
p381
tp382
a(Vas
p383
VRB
p384
tp385
a(Vlong
p386
VRB
p387
tp388
a(Vas
p389
VIN
p390
tp391
a(Vthe
p392
VDT
p393
tp394
a(Vnormal
p395
VJJ
p396
tp397
a(Vdog
p398
VNN
p399
tp400
a(Vfoods...
p401
VNN
p402
tp403
a(Vand
p404
VCC
p405
tp406
a(g216
VDT
p407
tp408
a(Vhealthier,
p409
VNN
p410
tp411
a(Vhappier
p412
VJJR
p413
tp414
a(Vdog,
p415
VNN
p416
tp417
a(Vto
p418
VTO
p419
tp420
a(Vboot!
p421
VNN
p422
tp423
a(VAdd
p424
VVB
p425
tp426
a(Vin
p427
VIN
p428
tp429
a(Vthe
p430
VDT
p431
tp432
a(Vfact
p433
VNN
p434
tp435
a(Vthat
p436
VIN
p437
tp438
a(Vyou
p439
VPRP
p440
tp441
a(Vcan
p442
VMD
p443
tp444
a(Vget
p445
VVB
p446
tp447
a(Vfree,
p448
VNN
p449
tp450
a(V2-day
p451
VJJ
p452
tp453
a(Vshipping
p454
VNN
p455
tp456
a(Vwith
p457
VIN
p458
tp459
a(VAmazon
p460
VNNP
p461
tp462
a(VPrime...
p463
VFW
p464
tp465
a(VI'm
p466
VFW
p467
tp468
a(Vsold!!
p469
VFW
p470
tp471
a.