(lp0
(VMy
p1
VPRP$
p2
tp3
a(Vhusband
p4
VNN
p5
tp6
a(Vis
p7
VVBZ
p8
tp9
a(Va
p10
VDT
p11
tp12
a(VTwizzlers
p13
VFW
p14
tp15
a(Vaddict.
p16
VFW
p17
tp18
a(VWe've
p19
VNN
p20
tp21
a(Vbought
p22
VVBD
p23
tp24
a(Vthese
p25
VDT
p26
tp27
a(Vmany
p28
VJJ
p29
tp30
a(Vtimes
p31
VNNS
p32
tp33
a(Vfrom
p34
VIN
p35
tp36
a(VAmazon
p37
VNNP
p38
tp39
a(Vbecause
p40
VIN
p41
tp42
a(Vwe're
p43
VJJ
p44
tp45
a(Vgovernment
p46
VNN
p47
tp48
a(Vemployees
p49
VNNS
p50
tp51
a(Vliving
p52
VVBG
p53
tp54
a(Voverseas
p55
VJJ
p56
tp57
a(Vand
p58
VCC
p59
tp60
a(Vcan't
p61
VNN
p62
tp63
a(Vget
p64
VVBP
p65
tp66
a(Vthem
p67
VPRP
p68
tp69
a(Vin
p70
VIN
p71
tp72
a(Vthe
p73
VDT
p74
tp75
a(Vcountry
p76
VNN
p77
tp78
a(Vwe
p79
VPRP
p80
tp81
a(Vare
p82
VVBP
p83
tp84
a(Vassigned
p85
VVBN
p86
tp87
a(Vto.
p88
VFW
p89
tp90
a(VThey've
p91
VFW
p92
tp93
a(Valways
p94
VRB
p95
tp96
a(Vbeen
p97
VVBN
p98
tp99
a(Vfresh
p100
VJJ
p101
tp102
a(Vand
p103
VCC
p104
tp105
a(Vtasty,
p106
VNN
p107
tp108
a(Vpacked
p109
VVBD
p110
tp111
a(Vwell
p112
VRB
p113
tp114
a(Vand
p115
VCC
p116
tp117
a(Varrive
p118
VVB
p119
tp120
a(Vin
p121
VIN
p122
tp123
a(g10
VDT
p124
tp125
a(Vtimely
p126
VJJ
p127
tp128
a(Vmanner.
p129
VNN
p130
tp131
a.