(lp0
(VWatch
p1
VVB
p2
tp3
a(Vyour
p4
VPRP$
p5
tp6
a(Vprices
p7
VNNS
p8
tp9
a(Vwith
p10
VIN
p11
tp12
a(Vthis.
p13
VNN
p14
tp15
a(VWhile
p16
VIN
p17
tp18
a(Vthe
p19
VDT
p20
tp21
a(Vassortment
p22
VNN
p23
tp24
a(Vwas
p25
VVBD
p26
tp27
a(Vgood,
p28
VNN
p29
tp30
a(Vand
p31
VCC
p32
tp33
a(VI
p34
VPRP
p35
tp36
a(Vdid
p37
VVBD
p38
tp39
a(Vget
p40
VVB
p41
tp42
a(Vthis
p43
VDT
p44
tp45
a(Von
p46
VIN
p47
tp48
a(Va
p49
VDT
p50
tp51
a(Vgold
p52
VNN
p53
tp54
a(Vbox
p55
VNN
p56
tp57
a(Vpurchase,
p58
VNN
p59
tp60
a(Vthe
p61
VDT
p62
tp63
a(Vprice
p64
VNN
p65
tp66
a(Vfor
p67
VIN
p68
tp69
a(Vthis
p70
VDT
p71
tp72
a(Vwas$3-4
p73
VNN
p74
tp75
a(Vless
p76
VJJR
p77
tp78
a(Vat
p79
VIN
p80
tp81
a(VTarget.
p82
VNNP
p83
tp84
a.