(lp0
(VThis
p1
VDT
p2
tp3
a(Vfood
p4
VNN
p5
tp6
a(Vis
p7
VVBZ
p8
tp9
a(Vgreat
p10
VJJ
p11
tp12
a(V-
p13
V:
p14
tp15
a(Vall
p16
VDT
p17
tp18
a(Vages
p19
VNNS
p20
tp21
a(Vdogs.
p22
VVBP
p23
tp24
a(VI
p25
VPRP
p26
tp27
a(Vhave
p28
VVBP
p29
tp30
a(Va
p31
VDT
p32
tp33
a(V3
p34
VCD
p35
tp36
a(Vyear
p37
VNN
p38
tp39
a(Vold
p40
VJJ
p41
tp42
a(Vand
p43
VCC
p44
tp45
a(g31
VDT
p46
tp47
a(Vpuppy.
p48
VNN
p49
tp50
a(VThey
p51
VPRP
p52
tp53
a(Vare
p54
VVBP
p55
tp56
a(Vboth
p57
VDT
p58
tp59
a(Vso
p60
VRB
p61
tp62
a(Vsoft
p63
VJJ
p64
tp65
a(Vand
p66
VCC
p67
tp68
a(Vhardly
p69
VRB
p70
tp71
a(Vever
p72
VRB
p73
tp74
a(Vget
p75
VVB
p76
tp77
a(Vsick.
p78
VNNP
p79
tp80
a(VThe
p81
VNNP
p82
tp83
a(Vfood
p84
VNN
p85
tp86
a(Vis
p87
VVBZ
p88
tp89
a(Vgood
p90
VJJ
p91
tp92
a(Vespecially
p93
VRB
p94
tp95
a(Vwhen
p96
VWRB
p97
tp98
a(Vyou
p99
VPRP
p100
tp101
a(Vhave
p102
VVBP
p103
tp104
a(VAmazon
p105
VNNP
p106
tp107
a(VPrime
p108
VNNP
p109
tp110
a(Vshipping
p111
VNN
p112
tp113
a(V:)
p114
VNN
p115
tp116
a.