(lp0
(VThese
p1
VDT
p2
tp3
a(VAlbanese
p4
VNNP
p5
tp6
a(Vgummi
p7
VNN
p8
tp9
a(Vbears
p10
VNNS
p11
tp12
a(Vand
p13
VCC
p14
tp15
a(Vrings
p16
VNNS
p17
tp18
a(Vand
p19
VCC
p20
tp21
a(Vso
p22
VRB
p23
tp24
a(Von
p25
VIN
p26
tp27
a(Vare
p28
VVBP
p29
tp30
a(Vvery
p31
VRB
p32
tp33
a(Vgood
p34
VJJ
p35
tp36
a(Vand
p37
VCC
p38
tp39
a(Vtasty
p40
VJJ
p41
tp42
a(Vand
p43
VCC
p44
tp45
a(Vhigh
p46
VJJ
p47
tp48
a(Vquality.
p49
VNN
p50
tp51
a(VThe
p52
VDT
p53
tp54
a(Vbears
p55
VNNS
p56
tp57
a(Veven
p58
VRB
p59
tp60
a(Vhave
p61
VVBP
p62
tp63
a(Vlittle
p64
VJJ
p65
tp66
a(Vfaces.
p67
VNN
p68
tp69
a(VAt
p70
VIN
p71
tp72
a(Vmy
p73
VPRP$
p74
tp75
a(Vlocal
p76
VJJ
p77
tp78
a(Vcandy
p79
VNN
p80
tp81
a(Vstore
p82
VNN
p83
tp84
a(Vthis
p85
VDT
p86
tp87
a(Vtype
p88
VNN
p89
tp90
a(Vof
p91
VIN
p92
tp93
a(Vgummi
p94
VNNS
p95
tp96
a(Vstuff
p97
VVBP
p98
tp99
a(V(bears,
p100
VFW
p101
tp102
a(Vrings,
p103
VFW
p104
tp105
a(Vsnakes,
p106
VFW
p107
tp108
a(Vballs,
p109
VFW
p110
tp111
a(Vworms,
p112
VFW
p113
tp114
a(Vwhatever)
p115
VFW
p116
tp117
a(Vare
p118
VVBP
p119
tp120
a(Vabout
p121
VIN
p122
tp123
a(V$10/lb.
p124
VNN
p125
tp126
a(VThese
p127
VDT
p128
tp129
a(Vtwin
p130
VJJ
p131
tp132
a(Vpacks
p133
VNNS
p134
tp135
a(Vof
p136
VIN
p137
tp138
a(V4.5
p139
VCD
p140
tp141
a(Vor
p142
VCC
p143
tp144
a(V5
p145
VCD
p146
tp147
a(Vpound
p148
VNN
p149
tp150
a(Vbags
p151
VNN
p152
tp153
a(Vis
p154
VVBZ
p155
tp156
a(Va
p157
VDT
p158
tp159
a(Vscreaming
p160
VVBG
p161
tp162
a(Vdeal
p163
VNN
p164
tp165
a(Vas
p166
VRB
p167
tp168
a(Vfar
p169
VRB
p170
tp171
a(Vas
p172
VIN
p173
tp174
a(VI'm
p175
VFW
p176
tp177
a(Vconcerned.
p178
VFW
p179
tp180
a(VI'm
p181
VFW
p182
tp183
a(Vprobably
p184
VRB
p185
tp186
a(V50
p187
VCD
p188
tp189
a(Vpounds
p190
VNNS
p191
tp192
a(Vdeep
p193
VJJ
p194
tp195
a(Vin
p196
VIN
p197
tp198
a(Vthese
p199
VDT
p200
tp201
a(Vfriggin'
p202
VFW
p203
tp204
a(Vthings.
p205
VFW
p206
tp207
a(VConsumed!
p208
VNN
p209
tp210
a.