(lp0
(VCandy
p1
VNN
p2
tp3
a(Vwas
p4
VVBD
p5
tp6
a(Vdelivered
p7
VVBN
p8
tp9
a(Vvery
p10
VRB
p11
tp12
a(Vfast
p13
VRB
p14
tp15
a(Vand
p16
VCC
p17
tp18
a(Vwas
p19
VVBD
p20
tp21
a(Vpurchased
p22
VVBN
p23
tp24
a(Vat
p25
VIN
p26
tp27
a(Va
p28
VDT
p29
tp30
a(Vreasonable
p31
VJJ
p32
tp33
a(Vprice.
p34
VNN
p35
tp36
a(VI
p37
VPRP
p38
tp39
a(Vwas
p40
VVBD
p41
tp42
a(Vhome
p43
VRB
p44
tp45
a(Vbound
p46
VVBN
p47
tp48
a(Vand
p49
VCC
p50
tp51
a(Vunable
p52
VJJ
p53
tp54
a(Vto
p55
VTO
p56
tp57
a(Vget
p58
VVB
p59
tp60
a(Vto
p61
VTO
p62
tp63
a(g28
VDT
p64
tp65
a(Vstore
p66
VNN
p67
tp68
a(Vso
p69
VIN
p70
tp71
a(Vthis
p72
VDT
p73
tp74
a(Vwas
p75
VVBD
p76
tp77
a(Vperfect
p78
VJJ
p79
tp80
a(Vfor
p81
VIN
p82
tp83
a(Vme.
p84
VNN
p85
tp86
a.