(lp0
(VGreat
p1
VJJ
p2
tp3
a(Vgift
p4
VNN
p5
tp6
a(Vfor
p7
VIN
p8
tp9
a(Vall
p10
VDT
p11
tp12
a(Vages!
p13
VNN
p14
tp15
a(VI
p16
VPRP
p17
tp18
a(Vpurchased
p19
VVBD
p20
tp21
a(Vthese
p22
VDT
p23
tp24
a(Vgiant
p25
VJJ
p26
tp27
a(Vcanes
p28
VNNS
p29
tp30
a(Vbefore
p31
VIN
p32
tp33
a(Vand
p34
VCC
p35
tp36
a(Vthe
p37
VDT
p38
tp39
a(Vrecipients
p40
VNNS
p41
tp42
a(Vloved
p43
VVBD
p44
tp45
a(Vthem
p46
VPRP
p47
tp48
a(Vso
p49
VRB
p50
tp51
a(Vmuch,
p52
VJJ
p53
tp54
a(Vthey
p55
VPRP
p56
tp57
a(Vkept
p58
VVBD
p59
tp60
a(Vthem
p61
VPRP
p62
tp63
a(Vand
p64
VCC
p65
tp66
a(Vwould
p67
VMD
p68
tp69
a(Vnot
p70
VRB
p71
tp72
a(Veat
p73
VVB
p74
tp75
a(Vthem.
p76
VNN
p77
tp78
a.