(lp0
(VI
p1
VPRP
p2
tp3
a(Vgot
p4
VVBD
p5
tp6
a(Vthis
p7
VDT
p8
tp9
a(Vfor
p10
VIN
p11
tp12
a(Vmy
p13
VPRP$
p14
tp15
a(VMum
p16
VNN
p17
tp18
a(Vwho
p19
VWP
p20
tp21
a(Vis
p22
VVBZ
p23
tp24
a(Vnot
p25
VRB
p26
tp27
a(Vdiabetic
p28
VJJ
p29
tp30
a(Vbut
p31
VCC
p32
tp33
a(Vneeds
p34
VVBZ
p35
tp36
a(Vto
p37
VTO
p38
tp39
a(Vwatch
p40
VVB
p41
tp42
a(Vher
p43
VPRP$
p44
tp45
a(Vsugar
p46
VNN
p47
tp48
a(Vintake,
p49
VNN
p50
tp51
a(Vand
p52
VCC
p53
tp54
a(Vmy
p55
VPRP$
p56
tp57
a(Vfather
p58
VNN
p59
tp60
a(Vwho
p61
VWP
p62
tp63
a(Vsimply
p64
VRB
p65
tp66
a(Vchooses
p67
VVBZ
p68
tp69
a(Vto
p70
VTO
p71
tp72
a(Vlimit
p73
VVB
p74
tp75
a(Vunnecessary
p76
VJJ
p77
tp78
a(Vsugar
p79
VNN
p80
tp81
a(Vintake
p82
VNN
p83
tp84
a(V-
p85
V:
p86
tp87
a(Vshe's
p88
VVBZ
p89
tp90
a(Vthe
p91
VDT
p92
tp93
a(Vone
p94
VNN
p95
tp96
a(Vwith
p97
VIN
p98
tp99
a(Vthe
p100
VDT
p101
tp102
a(Vsweet
p103
VJJ
p104
tp105
a(Vtooth
p106
VNN
p107
tp108
a(g85
g86
tp109
a(Vthey
p110
VPRP
p111
tp112
a(Vboth
p113
VDT
p114
tp115
a(VLOVED
p116
VVBD
p117
tp118
a(Vthese
p119
VDT
p120
tp121
a(Vtoffees,
p122
VNN
p123
tp124
a(Vyou
p125
VPRP
p126
tp127
a(Vwould
p128
VMD
p129
tp130
a(Vnever
p131
VRB
p132
tp133
a(Vguess
p134
VVB
p135
tp136
a(Vthat
p137
VIN
p138
tp139
a(Vthey're
p140
VFW
p141
tp142
a(Vsugar-free
p143
VFW
p144
tp145
a(Vand
p146
VCC
p147
tp148
a(Vit's
p149
VNNS
p150
tp151
a(Vso
p152
VRB
p153
tp154
a(Vgreat
p155
VJJ
p156
tp157
a(Vthat
p158
VIN
p159
tp160
a(Vyou
p161
VPRP
p162
tp163
a(Vcan
p164
VMD
p165
tp166
a(Veat
p167
VVB
p168
tp169
a(Vthem
p170
VPRP
p171
tp172
a(Vpretty
p173
VRB
p174
tp175
a(Vmuch
p176
VJJ
p177
tp178
a(Vguilt
p179
VNN
p180
tp181
a(Vfree!
p182
VFW
p183
tp184
a(Vi
p185
VFW
p186
tp187
a(Vwas
p188
VVBD
p189
tp190
a(Vso
p191
VRB
p192
tp193
a(Vimpressed
p194
VJJ
p195
tp196
a(Vthat
p197
VIN
p198
tp199
a(Vi've
p200
VNN
p201
tp202
a(Vordered
p203
VVBD
p204
tp205
a(Vsome
p206
VDT
p207
tp208
a(Vfor
p209
VIN
p210
tp211
a(Vmyself
p212
VPRP
p213
tp214
a(V(w
p215
VJJ
p216
tp217
a(Vdark
p218
VJJ
p219
tp220
a(Vchocolate)
p221
VNN
p222
tp223
a(Vto
p224
VTO
p225
tp226
a(Vtake
p227
VVB
p228
tp229
a(Vto
p230
VTO
p231
tp232
a(Vthe
p233
VDT
p234
tp235
a(Voffice
p236
VNN
p237
tp238
a(Vso
p239
VRB
p240
tp241
a(Vi'll
p242
VRB
p243
tp244
a(Veat
p245
VVB
p246
tp247
a(Vthem
p248
VPRP
p249
tp250
a(Vinstead
p251
VRB
p252
tp253
a(Vof
p254
VIN
p255
tp256
a(Vsnacking
p257
VVBG
p258
tp259
a(Von
p260
VIN
p261
tp262
a(Vsugary
p263
VJJ
p264
tp265
a(Vsweets.These
p266
VNN
p267
tp268
a(Vare
p269
VVBP
p270
tp271
a(Vjust
p272
VRB
p273
tp274
a(VEXCELLENT!
p275
VNN
p276
tp277
a.