(lp0
(VI
p1
VPRP
p2
tp3
a(Vordered
p4
VVBD
p5
tp6
a(Vtwo
p7
VCD
p8
tp9
a(Vof
p10
VIN
p11
tp12
a(Vthese
p13
VDT
p14
tp15
a(Vand
p16
VCC
p17
tp18
a(Vtwo
p19
VCD
p20
tp21
a(Vof
p22
VIN
p23
tp24
a(Vraspberry
p25
VNN
p26
tp27
a(Vlatice
p28
VNN
p29
tp30
a(Vtarts
p31
VNNS
p32
tp33
a(Vdirectly
p34
VRB
p35
tp36
a(Vfrom
p37
VIN
p38
tp39
a(VFantasiCakes
p40
VNNP
p41
tp42
a(Vwebsite
p43
VNN
p44
tp45
a(Vfor
p46
VIN
p47
tp48
a(Va
p49
VDT
p50
tp51
a(Vdinner
p52
VNN
p53
tp54
a(Vparty
p55
VNN
p56
tp57
a(g1
VPRP
p58
tp59
a(Vwas
p60
VVBD
p61
tp62
a(Vhosting.
p63
VNN
p64
tp65
a(VIt
p66
VPRP
p67
tp68
a(Varrived
p69
VVBD
p70
tp71
a(Vfresh
p72
VJJ
p73
tp74
a(Vand
p75
VCC
p76
tp77
a(Vintact.
p78
VNN
p79
tp80
a(VVery
p81
VRB
p82
tp83
a(Vgood
p84
VJJ
p85
tp86
a(Vsize.
p87
VNN
p88
tp89
a(g1
VPRP
p90
tp91
a(Vfroze
p92
VVBD
p93
tp94
a(Vhalf
p95
VNN
p96
tp97
a(Vfor
p98
VIN
p99
tp100
a(Vlater
p101
VJJ
p102
tp103
a(Vuse.
p104
VNN
p105
tp106
a(g1
VPRP
p107
tp108
a(Vam
p109
VVBP
p110
tp111
a(g49
VDT
p112
tp113
a(Vpastry
p114
VNN
p115
tp116
a(Vlover
p117
VNN
p118
tp119
a(Vand
p120
VCC
p121
tp122
a(Vthese
p123
VDT
p124
tp125
a(Vwere
p126
VVBD
p127
tp128
a(Vthe
p129
VDT
p130
tp131
a(Vbest
p132
VJJS
p133
tp134
a(VI've
p135
VNN
p136
tp137
a(Vever
p138
VRB
p139
tp140
a(Vtasted.
p141
VVBP
p142
tp143
a(VThe
p144
VDT
p145
tp146
a(Vpastry
p147
VNN
p148
tp149
a(Vwas
p150
VVBD
p151
tp152
a(Vsoft,
p153
VNNP
p154
tp155
a(Vthe
p156
VDT
p157
tp158
a(Vjam
p159
VNN
p160
tp161
a(Vwas
p162
VVBD
p163
tp164
a(Vreally
p165
VRB
p166
tp167
a(Vgood
p168
VJJ
p169
tp170
a(Vand
p171
VCC
p172
tp173
a(Vthe
p174
VDT
p175
tp176
a(Vtaste
p177
VNN
p178
tp179
a(Vwas
p180
VVBD
p181
tp182
a(Vgreat.
p183
VNN
p184
tp185
a(VThey
p186
VPRP
p187
tp188
a(Vwere
p189
VVBD
p190
tp191
a(Vgone
p192
VVBN
p193
tp194
a(Vin
p195
VIN
p196
tp197
a(Vno
p198
VDT
p199
tp200
a(Vtime.
p201
VNNP
p202
tp203
a(VMy
p204
VNNP
p205
tp206
a(Vguests
p207
VNNS
p208
tp209
a(Vwere
p210
VVBD
p211
tp212
a(Vreally
p213
VRB
p214
tp215
a(Vimpressed.
p216
VJJ
p217
tp218
a.