(lp0
(VI
p1
VPRP
p2
tp3
a(Vwas
p4
VVBD
p5
tp6
a(Vso
p7
VRB
p8
tp9
a(Vglad
p10
VJJ
p11
tp12
a(VAmazon
p13
VNNP
p14
tp15
a(Vcarried
p16
VVBD
p17
tp18
a(Vthese
p19
VDT
p20
tp21
a(Vbatteries.
p22
VNN
p23
tp24
a(g1
VPRP
p25
tp26
a(Vhave
p27
VVBP
p28
tp29
a(Va
p30
VDT
p31
tp32
a(Vhard
p33
VJJ
p34
tp35
a(Vtime
p36
VNN
p37
tp38
a(Vfinding
p39
VVBG
p40
tp41
a(Vthem
p42
VPRP
p43
tp44
a(Velsewhere
p45
VRB
p46
tp47
a(Vbecause
p48
VIN
p49
tp50
a(Vthey
p51
VPRP
p52
tp53
a(Vare
p54
VVBP
p55
tp56
a(Vsuch
p57
VJJ
p58
tp59
a(g30
VDT
p60
tp61
a(Vunique
p62
VJJ
p63
tp64
a(Vsize.
p65
VNN
p66
tp67
a(g1
VPRP
p68
tp69
a(Vneed
p70
VVBP
p71
tp72
a(Vthem
p73
VPRP
p74
tp75
a(Vfor
p76
VIN
p77
tp78
a(Vmy
p79
VPRP$
p80
tp81
a(Vgarage
p82
VNN
p83
tp84
a(Vdoor
p85
VNN
p86
tp87
a(Vopener.Great
p88
VNN
p89
tp90
a(Vdeal
p91
VNN
p92
tp93
a(Vfor
p94
VIN
p95
tp96
a(Vthe
p97
VDT
p98
tp99
a(Vprice.
p100
VNN
p101
tp102
a.