(lp0
(VAwesome
p1
VJJ
p2
tp3
a(Vdog
p4
VNN
p5
tp6
a(Vfood.
p7
VFW
p8
tp9
a(VHowever,
p10
VFW
p11
tp12
a(Vwhen
p13
VWRB
p14
tp15
a(Vgiven
p16
VVBN
p17
tp18
a(Vto
p19
VTO
p20
tp21
a(Vmy
p22
VPRP$
p23
tp24
a(V"Boston",
p25
VNN
p26
tp27
a(Vwho
p28
VWP
p29
tp30
a(Vhas
p31
VVBZ
p32
tp33
a(Vsevere
p34
VJJ
p35
tp36
a(Vreactions
p37
VNNS
p38
tp39
a(Vto
p40
VTO
p41
tp42
a(Vsome
p43
VDT
p44
tp45
a(Vfood
p46
VNN
p47
tp48
a(Vingredients;
p49
VNN
p50
tp51
a(Vhis
p52
VPRP$
p53
tp54
a(Vitching
p55
VNN
p56
tp57
a(Vincreased
p58
VVBD
p59
tp60
a(Vto
p61
VTO
p62
tp63
a(Vviolent
p64
VJJ
p65
tp66
a(Vjumping
p67
VVBG
p68
tp69
a(Vout
p70
VIN
p71
tp72
a(Vof
p73
VIN
p74
tp75
a(Vbed
p76
VNN
p77
tp78
a(Vat
p79
VIN
p80
tp81
a(Vnight,
p82
VFW
p83
tp84
a(Vscratching.
p85
VFW
p86
tp87
a(VAs
p88
VRB
p89
tp90
a(Vsoon
p91
VRB
p92
tp93
a(Vas
p94
VIN
p95
tp96
a(VI
p97
VPRP
p98
tp99
a(Vchanged
p100
VVBD
p101
tp102
a(Vto
p103
VTO
p104
tp105
a(Va
p106
VDT
p107
tp108
a(Vdifferent
p109
VJJ
p110
tp111
a(Vformula,
p112
VNN
p113
tp114
a(Vthe
p115
VDT
p116
tp117
a(Vscratching
p118
VVBG
p119
tp120
a(Vstopped.
p121
VNN
p122
tp123
a(VSo
p124
VIN
p125
tp126
a(Vglad
p127
VJJ
p128
tp129
a(VNatural
p130
VNNP
p131
tp132
a(VBalance
p133
VNNP
p134
tp135
a(Vhas
p136
VVBZ
p137
tp138
a(Vother
p139
VJJ
p140
tp141
a(Vchoices.
p142
VNN
p143
tp144
a(g97
VPRP
p145
tp146
a(Vguess
p147
VVBP
p148
tp149
a(Vyou
p150
VPRP
p151
tp152
a(Vhave
p153
VVBP
p154
tp155
a(Vto
p156
VTO
p157
tp158
a(Vtry
p159
VVB
p160
tp161
a(Veach,
p162
VNN
p163
tp164
a(Vuntil
p165
VIN
p166
tp167
a(Vyou
p168
VPRP
p169
tp170
a(Vfind
p171
VVBP
p172
tp173
a(Vwhat's
p174
VNNP
p175
tp176
a(Vbest
p177
VJJS
p178
tp179
a(Vfor
p180
VIN
p181
tp182
a(Vyour
p183
VPRP$
p184
tp185
a(Vpet.
p186
VNN
p187
tp188
a.