(lp0
(VMy
p1
VPRP$
p2
tp3
a(Vcats
p4
VNNS
p5
tp6
a(Vhave
p7
VVBP
p8
tp9
a(Vbeen
p10
VVBN
p11
tp12
a(Vhappily
p13
VRB
p14
tp15
a(Veating
p16
VVBG
p17
tp18
a(VFelidae
p19
VNNP
p20
tp21
a(VPlatinum
p22
VNN
p23
tp24
a(Vfor
p25
VIN
p26
tp27
a(Vmore
p28
VJJR
p29
tp30
a(Vthan
p31
VIN
p32
tp33
a(Vtwo
p34
VCD
p35
tp36
a(Vyears.
p37
VNN
p38
tp39
a(VI
p40
VPRP
p41
tp42
a(Vjust
p43
VRB
p44
tp45
a(Vgot
p46
VVBD
p47
tp48
a(Va
p49
VDT
p50
tp51
a(Vnew
p52
VJJ
p53
tp54
a(Vbag
p55
VNN
p56
tp57
a(Vand
p58
VCC
p59
tp60
a(Vthe
p61
VDT
p62
tp63
a(Vshape
p64
VNN
p65
tp66
a(Vof
p67
VIN
p68
tp69
a(Vthe
p70
VDT
p71
tp72
a(Vfood
p73
VNN
p74
tp75
a(Vis
p76
VVBZ
p77
tp78
a(Vdifferent.
p79
VNN
p80
tp81
a(VThey
p82
VPRP
p83
tp84
a(Vtried
p85
VVBD
p86
tp87
a(Vthe
p88
VDT
p89
tp90
a(Vnew
p91
VJJ
p92
tp93
a(Vfood
p94
VNN
p95
tp96
a(Vwhen
p97
VWRB
p98
tp99
a(g40
VPRP
p100
tp101
a(Vfirst
p102
VRB
p103
tp104
a(Vput
p105
VVBD
p106
tp107
a(Vit
p108
VPRP
p109
tp110
a(Vin
p111
VIN
p112
tp113
a(Vtheir
p114
VPRP$
p115
tp116
a(Vbowls
p117
VVBZ
p118
tp119
a(Vand
p120
VCC
p121
tp122
a(Vnow
p123
VRB
p124
tp125
a(Vthe
p126
VDT
p127
tp128
a(Vbowls
p129
VVBZ
p130
tp131
a(Vsit
p132
VVB
p133
tp134
a(Vfull
p135
VJJ
p136
tp137
a(Vand
p138
VCC
p139
tp140
a(Vthe
p141
VDT
p142
tp143
a(Vkitties
p144
VNNS
p145
tp146
a(Vwill
p147
VMD
p148
tp149
a(Vnot
p150
VRB
p151
tp152
a(Vtouch
p153
VVB
p154
tp155
a(Vthe
p156
VDT
p157
tp158
a(Vfood.
p159
VNN
p160
tp161
a(VI've
p162
VNN
p163
tp164
a(Vnoticed
p165
VVBD
p166
tp167
a(Vsimilar
p168
VJJ
p169
tp170
a(Vreviews
p171
VNNS
p172
tp173
a(Vrelated
p174
VVBN
p175
tp176
a(Vto
p177
VTO
p178
tp179
a(Vformula
p180
VNN
p181
tp182
a(Vchanges
p183
VNNS
p184
tp185
a(Vin
p186
VIN
p187
tp188
a(Vthe
p189
VDT
p190
tp191
a(Vpast.
p192
VFW
p193
tp194
a(VUnfortunately,
p195
VFW
p196
tp197
a(g40
VPRP
p198
tp199
a(Vnow
p200
VRB
p201
tp202
a(Vneed
p203
VVBP
p204
tp205
a(Vto
p206
VTO
p207
tp208
a(Vfind
p209
VVB
p210
tp211
a(g49
VDT
p212
tp213
a(Vnew
p214
VJJ
p215
tp216
a(Vfood
p217
VNN
p218
tp219
a(Vthat
p220
VIN
p221
tp222
a(Vmy
p223
VPRP$
p224
tp225
a(Vcats
p226
VNNS
p227
tp228
a(Vwill
p229
VMD
p230
tp231
a(Veat.
p232
VVB
p233
tp234
a.