(lp0
(VOur
p1
VPRP$
p2
tp3
a(Vpup
p4
VNN
p5
tp6
a(Vhas
p7
VVBZ
p8
tp9
a(Vexperienced
p10
VVBN
p11
tp12
a(Vallergies
p13
VNNS
p14
tp15
a(Vin
p16
VIN
p17
tp18
a(Vforms
p19
VNNS
p20
tp21
a(Vof
p22
VIN
p23
tp24
a(Vhotspots
p25
VNNS
p26
tp27
a(Vand
p28
VCC
p29
tp30
a(Vitching
p31
VVBG
p32
tp33
a(Vfrom
p34
VIN
p35
tp36
a(Vother
p37
VJJ
p38
tp39
a(Vdog
p40
VNN
p41
tp42
a(Vfoods.
p43
VNN
p44
tp45
a(VThe
p46
VDT
p47
tp48
a(Vcheap
p49
VJJ
p50
tp51
a(V'you
p52
VNN
p53
tp54
a(Vcan
p55
VMD
p56
tp57
a(Vbuy
p58
VVB
p59
tp60
a(Vit
p61
VPRP
p62
tp63
a(Vanywhere'
p64
VNN
p65
tp66
a(Vfood
p67
VNN
p68
tp69
a(Vnot
p70
VRB
p71
tp72
a(Vonly
p73
VRB
p74
tp75
a(Vhave
p76
VVB
p77
tp78
a(Vcrazy
p79
VJJ
p80
tp81
a(Vpreservatives
p82
VNNS
p83
tp84
a(Vin
p85
VIN
p86
tp87
a(Vthem
p88
VPRP
p89
tp90
a(Vbut
p91
VCC
p92
tp93
a(Vcan
p94
VMD
p95
tp96
a(Vcause
p97
VVB
p98
tp99
a(Vhealth
p100
VNN
p101
tp102
a(Vproblems
p103
VNNS
p104
tp105
a(Vfor
p106
VIN
p107
tp108
a(Vyour
p109
VPRP$
p110
tp111
a(Vpets.
p112
VNN
p113
tp114
a(VThis
p115
VDT
p116
tp117
a(Vfood
p118
VNN
p119
tp120
a(Vworks
p121
VVBZ
p122
tp123
a(Vwonders
p124
VNNS
p125
tp126
a(Von
p127
VIN
p128
tp129
a(Vreducing
p130
VVBG
p131
tp132
a(Vallergies
p133
VNNS
p134
tp135
a(Vand
p136
VCC
p137
tp138
a(Vour
p139
VPRP$
p140
tp141
a(Vdog
p142
VNN
p143
tp144
a(Vloves
p145
VVBZ
p146
tp147
a(Vthe
p148
VDT
p149
tp150
a(Vfood.This
p151
VNN
p152
tp153
a(Vmessage
p154
VNN
p155
tp156
a(Vis
p157
VVBZ
p158
tp159
a(VRAMSEY
p160
VNN
p161
tp162
a(VFrAnkenSteiN
p163
VNN
p164
tp165
a(Vapproved.
p166
VNN
p167
tp168
a.