(lp0
(VIt
p1
VPRP
p2
tp3
a(Vis
p4
VVBZ
p5
tp6
a(Vchocolate,
p7
VNNP
p8
tp9
a(Vwhat
p10
VWP
p11
tp12
a(Vcan
p13
VMD
p14
tp15
a(VI
p16
VPRP
p17
tp18
a(Vsay.
p19
VVB
p20
tp21
a(VGreat
p22
VJJ
p23
tp24
a(Vvariety
p25
VNN
p26
tp27
a(Vof
p28
VIN
p29
tp30
a(Veverything
p31
VNN
p32
tp33
a(Vour
p34
VPRP$
p35
tp36
a(Vfamily
p37
VNN
p38
tp39
a(Vloves.
p40
VNN
p41
tp42
a(VWith
p43
VIN
p44
tp45
a(Va
p46
VDT
p47
tp48
a(Vfamily
p49
VNN
p50
tp51
a(Vof
p52
VIN
p53
tp54
a(Vsix
p55
VCD
p56
tp57
a(Vit
p58
VPRP
p59
tp60
a(Vgoes
p61
VVBZ
p62
tp63
a(Vfast
p64
VJJ
p65
tp66
a(Vhere.
p67
VNN
p68
tp69
a(VPerfect
p70
VNNP
p71
tp72
a(Vvariety.
p73
VNNP
p74
tp75
a(VKit
p76
VNN
p77
tp78
a(VKat,
p79
VFW
p80
tp81
a(VReeses,
p82
VFW
p83
tp84
a(Vtake
p85
VVB
p86
tp87
a(Vfive
p88
VCD
p89
tp90
a(Vand
p91
VCC
p92
tp93
a(Vmore.
p94
VNN
p95
tp96
a.