(lp0
(VNo
p1
VDT
p2
tp3
a(Vtea
p4
VNN
p5
tp6
a(Vflavor
p7
VNN
p8
tp9
a(Vat
p10
VIN
p11
tp12
a(Vall.
p13
VNN
p14
tp15
a(VJust
p16
VRB
p17
tp18
a(Vwhole
p19
VJJ
p20
tp21
a(Vbrunch
p22
VNN
p23
tp24
a(Vof
p25
VIN
p26
tp27
a(Vartifial
p28
VJJ
p29
tp30
a(Vflavors.
p31
VNN
p32
tp33
a(VIt
p34
VPRP
p35
tp36
a(Vis
p37
VVBZ
p38
tp39
a(Vnot
p40
VRB
p41
tp42
a(Vreturnable.
p43
VNN
p44
tp45
a(VI
p46
VPRP
p47
tp48
a(Vwasted
p49
VVBD
p50
tp51
a(V20+
p52
VCD
p53
tp54
a(Vbucks.
p55
VNN
p56
tp57
a.