(lp0
(VThe
p1
VDT
p2
tp3
a(Vvariety
p4
VNN
p5
tp6
a(Vpacks
p7
VVBZ
p8
tp9
a(Vtaste
p10
VNN
p11
tp12
a(Vgreat!I
p13
VNN
p14
tp15
a(Vhave
p16
VVBP
p17
tp18
a(Vthem
p19
VPRP
p20
tp21
a(Vevery
p22
VDT
p23
tp24
a(Vmorning.
p25
VNN
p26
tp27
a(VAt
p28
VIN
p29
tp30
a(V$0.30
p31
VCD
p32
tp33
a(Vcents
p34
VNNS
p35
tp36
a(Vper
p37
VIN
p38
tp39
a(Vmeal,
p40
VNN
p41
tp42
a(VI
p43
VPRP
p44
tp45
a(Vdon't
p46
VVBP
p47
tp48
a(Vunderstand
p49
VVB
p50
tp51
a(Vwhy
p52
VWRB
p53
tp54
a(Veveryone
p55
VNN
p56
tp57
a(Von
p58
VIN
p59
tp60
a(Vearth
p61
VNN
p62
tp63
a(Visn't
p64
VNN
p65
tp66
a(Vbuying
p67
VVBG
p68
tp69
a(Vthis
p70
VDT
p71
tp72
a(Vstuff
p73
VNN
p74
tp75
a(Vup.Maple
p76
VNN
p77
tp78
a(Vand
p79
VCC
p80
tp81
a(Vbrown
p82
VJJ
p83
tp84
a(Vsugar
p85
VNN
p86
tp87
a(Vis
p88
VVBZ
p89
tp90
a(Vterrific,
p91
VNN
p92
tp93
a(Vfollowed
p94
VVBN
p95
tp96
a(Vby
p97
VIN
p98
tp99
a(Vapples
p100
VNNS
p101
tp102
a(Vand
p103
VCC
p104
tp105
a(Vcinnamon,
p106
VNN
p107
tp108
a(Vfollowed
p109
VVBN
p110
tp111
a(Vby
p112
VIN
p113
tp114
a(Vregular.
p115
VNN
p116
tp117
a(VYou
p118
VPRP
p119
tp120
a(Vdon't
p121
VVBP
p122
tp123
a(Vget
p124
VVB
p125
tp126
a(Vtired
p127
VJJ
p128
tp129
a(Vof
p130
VIN
p131
tp132
a(Vthe
p133
VDT
p134
tp135
a(Vsame
p136
VJJ
p137
tp138
a(Vole
p139
VFW
p140
tp141
a(Vthing,
p142
VFW
p143
tp144
a(Vand
p145
VCC
p146
tp147
a(Vthey
p148
VPRP
p149
tp150
a(Vtaste
p151
VVBP
p152
tp153
a(Vgreat.I
p154
VNN
p155
tp156
a(Vjust
p157
VRB
p158
tp159
a(Vboil
p160
VVBP
p161
tp162
a(Vwater
p163
VNN
p164
tp165
a(Vfrom
p166
VIN
p167
tp168
a(Va
p169
VDT
p170
tp171
a(Vsmall
p172
VJJ
p173
tp174
a(Vpot,
p175
VNN
p176
tp177
a(Vempty
p178
VVBP
p179
tp180
a(Vthe
p181
VDT
p182
tp183
a(Vpacket
p184
VNN
p185
tp186
a(Vor
p187
VCC
p188
tp189
a(V2
p190
VCD
p191
tp192
a(Vin
p193
VIN
p194
tp195
a(g169
VDT
p196
tp197
a(Vbowl,
p198
VNN
p199
tp200
a(Vpour
p201
VVB
p202
tp203
a(Vin
p204
VIN
p205
tp206
a(Vboiling
p207
VJJ
p208
tp209
a(Vwater,
p210
VNN
p211
tp212
a(Vand
p213
VCC
p214
tp215
a(Vwatch
p216
VVB
p217
tp218
a(Vit
p219
VPRP
p220
tp221
a(Vexpand
p222
VVB
p223
tp224
a(Vto
p225
VTO
p226
tp227
a(V2x
p228
VVB
p229
tp230
a(Vits
p231
VPRP$
p232
tp233
a(Vsize!Taste
p234
VNN
p235
tp236
a(Vreally
p237
VRB
p238
tp239
a(Vgood
p240
VJJ
p241
tp242
a(Vand
p243
VCC
p244
tp245
a(Vtakes
p246
VVBZ
p247
tp248
a(Vminutes
p249
VNNS
p250
tp251
a(Vto
p252
VTO
p253
tp254
a(Vprepare.Not
p255
VVB
p256
tp257
a(Vsure
p258
VJJ
p259
tp260
a(Vwhy
p261
VWRB
p262
tp263
a(Veveryone
p264
VNN
p265
tp266
a(Von
p267
VIN
p268
tp269
a(Vearth
p270
VNN
p271
tp272
a(Visn't
p273
VFW
p274
tp275
a(Vthis.
p276
VFW
p277
tp278
a(VConvenient,
p279
VFW
p280
tp281
a(Vhealthy,
p282
VFW
p283
tp284
a(Vvery
p285
VRB
p286
tp287
a(Vquick,
p288
VJJ
p289
tp290
a(Vexcellent
p291
VJJ
p292
tp293
a(Vquality,
p294
VNN
p295
tp296
a(Vand
p297
VCC
p298
tp299
a(Vextremely
p300
VRB
p301
tp302
a(Vcheap...
p303
VNN
p304
tp305
a.