(lp0
(VThis
p1
VDT
p2
tp3
a(Vis
p4
VVBZ
p5
tp6
a(Va
p7
VDT
p8
tp9
a(Vvery
p10
VRB
p11
tp12
a(Vhealthy
p13
VJJ
p14
tp15
a(Vdog
p16
VNN
p17
tp18
a(Vfood.
p19
VNNP
p20
tp21
a(VGood
p22
VNNP
p23
tp24
a(Vfor
p25
VIN
p26
tp27
a(Vtheir
p28
VPRP$
p29
tp30
a(Vdigestion.
p31
VNN
p32
tp33
a(VAlso
p34
VRB
p35
tp36
a(Vgood
p37
VJJ
p38
tp39
a(Vfor
p40
VIN
p41
tp42
a(Vsmall
p43
VJJ
p44
tp45
a(Vpuppies.
p46
VNNP
p47
tp48
a(VMy
p49
VNNP
p50
tp51
a(Vdog
p52
VNN
p53
tp54
a(Veats
p55
VVBZ
p56
tp57
a(Vher
p58
VPRP
p59
tp60
a(Vrequired
p61
VVBD
p62
tp63
a(Vamount
p64
VNN
p65
tp66
a(Vat
p67
VIN
p68
tp69
a(Vevery
p70
VDT
p71
tp72
a(Vfeeding.
p73
VNN
p74
tp75
a.