(lp0
(dp1
S'neg'
p2
F0.0
sS'neu'
p3
F0.517
sS'pos'
p4
F0.483
sS'compound'
p5
F0.9413
sa(dp6
g2
F0.129
sg3
F0.762
sg4
F0.11
sg5
F-0.1027
sa(dp7
g2
F0.165
sg3
F0.56
sg4
F0.275
sg5
F0.8073
sa(dp8
g2
F0.0
sg3
F1.0
sg4
F0.0
sg5
F0.0
sa(dp9
g2
F0.0
sg3
F0.369
sg4
F0.631
sg5
F0.9468
sa(dp10
g2
F0.044
sg3
F0.714
sg4
F0.242
sg5
F0.8748
sa(dp11
g2
F0.0
sg3
F0.551
sg4
F0.449
sg5
F0.951
sa(dp12
g2
F0.0
sg3
F0.311
sg4
F0.689
sg5
F0.938
sa(dp13
g2
F0.0
sg3
F0.741
sg4
F0.259
sg5
F0.6369
sa(dp14
g2
F0.0
sg3
F0.585
sg4
F0.415
sg5
F0.8176
sa(dp15
g2
F0.03
sg3
F0.771
sg4
F0.199
sg5
F0.948
sa(dp16
g2
F0.155
sg3
F0.845
sg4
F0.0
sg5
F-0.6486
sa(dp17
g2
F0.055
sg3
F0.864
sg4
F0.082
sg5
F0.296
sa(dp18
g2
F0.0
sg3
F0.196
sg4
F0.804
sg5
F0.9466
sa(dp19
g2
F0.166
sg3
F0.414
sg4
F0.42
sg5
F0.6486
sa(dp20
g2
F0.0
sg3
F0.802
sg4
F0.198
sg5
F0.5719
sa(dp21
g2
F0.0
sg3
F0.48
sg4
F0.52
sg5
F0.9348
sa(dp22
g2
F0.0
sg3
F0.349
sg4
F0.651
sg5
F0.8807
sa(dp23
g2
F0.0
sg3
F0.826
sg4
F0.174
sg5
F0.9215
sa(dp24
g2
F0.0
sg3
F0.764
sg4
F0.236
sg5
F0.5719
sa(dp25
g2
F0.0
sg3
F0.797
sg4
F0.203
sg5
F0.6249
sa(dp26
g2
F0.0
sg3
F0.579
sg4
F0.421
sg5
F0.9153
sa(dp27
g2
F0.0
sg3
F0.643
sg4
F0.357
sg5
F0.7687
sa(dp28
g2
F0.158
sg3
F0.526
sg4
F0.316
sg5
F0.4767
sa(dp29
g2
F0.054
sg3
F0.817
sg4
F0.129
sg5
F0.4898
sa(dp30
g2
F0.0
sg3
F1.0
sg4
F0.0
sg5
F0.0
sa(dp31
g2
F0.0
sg3
F1.0
sg4
F0.0
sg5
F0.0
sa(dp32
g2
F0.073
sg3
F0.681
sg4
F0.246
sg5
F0.5106
sa(dp33
g2
F0.032
sg3
F0.591
sg4
F0.377
sg5
F0.9744
sa(dp34
g2
F0.03
sg3
F0.771
sg4
F0.199
sg5
F0.948
sa(dp35
g2
F0.056
sg3
F0.595
sg4
F0.349
sg5
F0.9672
sa(dp36
g2
F0.0
sg3
F0.281
sg4
F0.719
sg5
F0.9153
sa(dp37
g2
F0.056
sg3
F0.79
sg4
F0.154
sg5
F0.9097
sa(dp38
g2
F0.03
sg3
F0.582
sg4
F0.388
sg5
F0.9781
sa(dp39
g2
F0.0
sg3
F0.779
sg4
F0.221
sg5
F0.9382
sa(dp40
g2
F0.0
sg3
F0.654
sg4
F0.346
sg5
F0.9559
sa(dp41
g2
F0.0
sg3
F0.585
sg4
F0.415
sg5
F0.9196
sa(dp42
g2
F0.0
sg3
F0.909
sg4
F0.091
sg5
F0.443
sa(dp43
g2
F0.0
sg3
F0.806
sg4
F0.194
sg5
F0.8625
sa(dp44
g2
F0.0
sg3
F0.785
sg4
F0.215
sg5
F0.7971
sa(dp45
g2
F0.052
sg3
F0.721
sg4
F0.226
sg5
F0.9263
sa(dp46
g2
F0.065
sg3
F0.684
sg4
F0.251
sg5
F0.968
sa(dp47
g2
F0.0
sg3
F0.432
sg4
F0.568
sg5
F0.9413
sa(dp48
g2
F0.0
sg3
F0.51
sg4
F0.49
sg5
F0.91
sa(dp49
g2
F0.071
sg3
F0.64
sg4
F0.289
sg5
F0.7574
sa(dp50
g2
F0.0
sg3
F1.0
sg4
F0.0
sg5
F0.0
sa(dp51
g2
F0.0
sg3
F0.602
sg4
F0.398
sg5
F0.9169
sa(dp52
g2
F0.0
sg3
F0.734
sg4
F0.266
sg5
F0.4404
sa(dp53
g2
F0.0
sg3
F0.654
sg4
F0.346
sg5
F0.8932
sa(dp54
g2
F0.116
sg3
F0.719
sg4
F0.164
sg5
F0.2363
sa(dp55
g2
F0.151
sg3
F0.642
sg4
F0.207
sg5
F0.1999
sa(dp56
g2
F0.06
sg3
F0.561
sg4
F0.378
sg5
F0.936
sa(dp57
g2
F0.128
sg3
F0.762
sg4
F0.109
sg5
F-0.3818
sa(dp58
g2
F0.143
sg3
F0.857
sg4
F0.0
sg5
F-0.3612
sa(dp59
g2
F0.0
sg3
F0.787
sg4
F0.213
sg5
F0.8756
sa(dp60
g2
F0.063
sg3
F0.59
sg4
F0.347
sg5
F0.91
sa(dp61
g2
F0.045
sg3
F0.523
sg4
F0.433
sg5
F0.908
sa(dp62
g2
F0.0
sg3
F0.596
sg4
F0.404
sg5
F0.91
sa(dp63
g2
F0.0
sg3
F0.44
sg4
F0.56
sg5
F0.9323
sa(dp64
g2
F0.0
sg3
F0.44
sg4
F0.56
sg5
F0.8807
sa(dp65
g2
F0.0
sg3
F0.805
sg4
F0.195
sg5
F0.4404
sa(dp66
g2
F0.0
sg3
F0.569
sg4
F0.431
sg5
F0.8442
sa(dp67
g2
F0.0
sg3
F1.0
sg4
F0.0
sg5
F0.0
sa(dp68
g2
F0.074
sg3
F0.722
sg4
F0.204
sg5
F0.9562
sa(dp69
g2
F0.0
sg3
F0.696
sg4
F0.304
sg5
F0.8583
sa(dp70
g2
F0.065
sg3
F0.712
sg4
F0.223
sg5
F0.5141
sa(dp71
g2
F0.086
sg3
F0.816
sg4
F0.098
sg5
F0.2542
sa(dp72
g2
F0.299
sg3
F0.65
sg4
F0.051
sg5
F-0.9278
sa(dp73
g2
F0.169
sg3
F0.482
sg4
F0.349
sg5
F0.6425
sa(dp74
g2
F0.43
sg3
F0.398
sg4
F0.172
sg5
F-0.5983
sa(dp75
g2
F0.056
sg3
F0.876
sg4
F0.068
sg5
F0.1511
sa(dp76
g2
F0.113
sg3
F0.574
sg4
F0.312
sg5
F0.9586
sa(dp77
g2
F0.0
sg3
F0.514
sg4
F0.486
sg5
F0.9806
sa(dp78
g2
F0.12
sg3
F0.686
sg4
F0.195
sg5
F0.9548
sa(dp79
g2
F0.0
sg3
F0.678
sg4
F0.322
sg5
F0.2263
sa(dp80
g2
F0.242
sg3
F0.758
sg4
F0.0
sg5
F-0.4939
sa(dp81
g2
F0.047
sg3
F0.744
sg4
F0.209
sg5
F0.8074
sa(dp82
g2
F0.0
sg3
F0.711
sg4
F0.289
sg5
F0.8741
sa(dp83
g2
F0.0
sg3
F0.578
sg4
F0.422
sg5
F0.8074
sa(dp84
g2
F0.436
sg3
F0.477
sg4
F0.087
sg5
F-0.7946
sa(dp85
g2
F0.0
sg3
F0.566
sg4
F0.434
sg5
F0.9098
sa(dp86
g2
F0.0
sg3
F0.472
sg4
F0.528
sg5
F0.9041
sa(dp87
g2
F0.094
sg3
F0.725
sg4
F0.181
sg5
F0.9644
sa(dp88
g2
F0.118
sg3
F0.541
sg4
F0.342
sg5
F0.891
sa(dp89
g2
F0.167
sg3
F0.517
sg4
F0.316
sg5
F0.8176
sa(dp90
g2
F0.0
sg3
F0.541
sg4
F0.459
sg5
F0.9523
sa(dp91
g2
F0.049
sg3
F0.756
sg4
F0.195
sg5
F0.7646
sa(dp92
g2
F0.072
sg3
F0.607
sg4
F0.321
sg5
F0.7619
sa(dp93
g2
F0.066
sg3
F0.635
sg4
F0.299
sg5
F0.953
sa(dp94
g2
F0.0
sg3
F0.559
sg4
F0.441
sg5
F0.9594
sa(dp95
g2
F0.0
sg3
F0.721
sg4
F0.279
sg5
F0.7351
sa(dp96
g2
F0.0
sg3
F0.687
sg4
F0.313
sg5
F0.6249
sa(dp97
g2
F0.105
sg3
F0.482
sg4
F0.413
sg5
F0.8384
sa(dp98
g2
F0.016
sg3
F0.661
sg4
F0.322
sg5
F0.9882
sa(dp99
g2
F0.0
sg3
F1.0
sg4
F0.0
sg5
F0.0
sa(dp100
g2
F0.102
sg3
F0.588
sg4
F0.31
sg5
F0.8469
sa(dp101
g2
F0.075
sg3
F0.736
sg4
F0.189
sg5
F0.9317
sa(dp102
g2
F0.132
sg3
F0.699
sg4
F0.168
sg5
F0.34
sa(dp103
g2
F0.04
sg3
F0.849
sg4
F0.11
sg5
F0.5106
sa(dp104
g2
F0.279
sg3
F0.573
sg4
F0.149
sg5
F-0.5267
sa.