(lp0
(VNo
p1
VO
p2
tp3
a(Vtea
p4
g2
tp5
a(Vflavor
p6
g2
tp7
a(Vat
p8
g2
tp9
a(Vall.
p10
g2
tp11
a(VJust
p12
g2
tp13
a(Vwhole
p14
g2
tp15
a(Vbrunch
p16
g2
tp17
a(Vof
p18
g2
tp19
a(Vartifial
p20
g2
tp21
a(Vflavors.
p22
g2
tp23
a(VIt
p24
g2
tp25
a(Vis
p26
g2
tp27
a(Vnot
p28
g2
tp29
a(Vreturnable.
p30
g2
tp31
a(VI
p32
g2
tp33
a(Vwasted
p34
g2
tp35
a(V20+
p36
g2
tp37
a(Vbucks.
p38
g2
tp39
a.