(lp0
(VThis
p1
VO
p2
tp3
a(Vstuff
p4
g2
tp5
a(Vreally
p6
g2
tp7
a(Vworks
p8
g2
tp9
a(Vfor
p10
g2
tp11
a(Vpreventing
p12
g2
tp13
a(Vcramping
p14
g2
tp15
a(Vduring
p16
g2
tp17
a(Vthe
p18
g2
tp19
a(Vmiddle
p20
g2
tp21
a(Vto
p22
g2
tp23
a(Vlatter
p24
g2
tp25
a(Vstages
p26
g2
tp27
a(Vof
p28
g2
tp29
a(Vyour
p30
g2
tp31
a(Vrides.
p32
g2
tp33
a(VPop
p34
g2
tp35
a(V1
p36
g2
tp37
a(Vinto
p38
g2
tp39
a(Veach
p40
g2
tp41
a(Vwater
p42
g2
tp43
a(Vbottle
p44
g2
tp45
a(Vand
p46
g2
tp47
a(Vyou're
p48
g2
tp49
a(Vset.
p50
g2
tp51
a(VFlavor
p52
g2
tp53
a(Vis
p54
g2
tp55
a(Vfine
p56
g2
tp57
a(Vand
p58
g2
tp59
a(Vgoes
p60
g2
tp61
a(Vdown
p62
g2
tp63
a(Veasy.
p64
g2
tp65
a.