(lp0
(VI
p1
VO
p2
tp3
a(Vgot
p4
g2
tp5
a(Va
p6
g2
tp7
a(Vwild
p8
g2
tp9
a(Vhair
p10
g2
tp11
a(Vfor
p12
g2
tp13
a(Vtaffy
p14
g2
tp15
a(Vand
p16
g2
tp17
a(Vordered
p18
g2
tp19
a(Vthis
p20
g2
tp21
a(Vfive
p22
g2
tp23
a(Vpound
p24
g2
tp25
a(Vbag.
p26
g2
tp27
a(VThe
p28
g2
tp29
a(Vtaffy
p30
g2
tp31
a(Vwas
p32
g2
tp33
a(Vall
p34
g2
tp35
a(Vvery
p36
g2
tp37
a(Venjoyable
p38
g2
tp39
a(Vwith
p40
g2
tp41
a(Vmany
p42
g2
tp43
a(Vflavors:
p44
g2
tp45
a(Vwatermelon,
p46
g2
tp47
a(Vroot
p48
g2
tp49
a(Vbeer,
p50
g2
tp51
a(Vmelon,
p52
g2
tp53
a(Vpeppermint,
p54
g2
tp55
a(Vgrape,
p56
g2
tp57
a(Vetc.
p58
g2
tp59
a(VMy
p60
g2
tp61
a(Vonly
p62
g2
tp63
a(Vcomplaint
p64
g2
tp65
a(Vis
p66
g2
tp67
a(Vthere
p68
g2
tp69
a(Vwas
p70
g2
tp71
a(g6
g2
tp72
a(Vbit
p73
g2
tp74
a(Vtoo
p75
g2
tp76
a(Vmuch
p77
g2
tp78
a(Vredblack
p79
g2
tp80
a(Vlicorice-flavored
p81
g2
tp82
a(Vpieces
p83
g2
tp84
a(V(just
p85
g2
tp86
a(Vnot
p87
g2
tp88
a(Vmy
p89
g2
tp90
a(Vparticular
p91
g2
tp92
a(Vfavorites).
p93
g2
tp94
a(VBetween
p95
g2
tp96
a(Vme,
p97
g2
tp98
a(Vmy
p99
g2
tp100
a(Vkids,
p101
g2
tp102
a(Vand
p103
g2
tp104
a(Vmy
p105
g2
tp106
a(Vhusband,
p107
g2
tp108
a(Vthis
p109
g2
tp110
a(Vlasted
p111
g2
tp112
a(Vonly
p113
g2
tp114
a(Vtwo
p115
g2
tp116
a(Vweeks!
p117
g2
tp118
a(g1
g2
tp119
a(Vwould
p120
g2
tp121
a(Vrecommend
p122
g2
tp123
a(Vthis
p124
g2
tp125
a(Vbrand
p126
g2
tp127
a(Vof
p128
g2
tp129
a(Vtaffy
p130
g2
tp131
a(V--
p132
g2
tp133
a(Vit
p134
g2
tp135
a(Vwas
p136
g2
tp137
a(g6
g2
tp138
a(Vdelightful
p139
g2
tp140
a(Vtreat.
p141
g2
tp142
a.