(lp0
(VI
p1
VO
p2
tp3
a(Vordered
p4
g2
tp5
a(Vtwo
p6
g2
tp7
a(Vof
p8
g2
tp9
a(Vthese
p10
g2
tp11
a(Vand
p12
g2
tp13
a(Vtwo
p14
g2
tp15
a(Vof
p16
g2
tp17
a(Vraspberry
p18
g2
tp19
a(Vlatice
p20
g2
tp21
a(Vtarts
p22
g2
tp23
a(Vdirectly
p24
g2
tp25
a(Vfrom
p26
g2
tp27
a(VFantasiCakes
p28
g2
tp29
a(Vwebsite
p30
g2
tp31
a(Vfor
p32
g2
tp33
a(Va
p34
g2
tp35
a(Vdinner
p36
g2
tp37
a(Vparty
p38
g2
tp39
a(g1
g2
tp40
a(Vwas
p41
g2
tp42
a(Vhosting.
p43
g2
tp44
a(VIt
p45
g2
tp46
a(Varrived
p47
g2
tp48
a(Vfresh
p49
g2
tp50
a(Vand
p51
g2
tp52
a(Vintact.
p53
g2
tp54
a(VVery
p55
g2
tp56
a(Vgood
p57
g2
tp58
a(Vsize.
p59
g2
tp60
a(g1
g2
tp61
a(Vfroze
p62
g2
tp63
a(Vhalf
p64
g2
tp65
a(Vfor
p66
g2
tp67
a(Vlater
p68
g2
tp69
a(Vuse.
p70
g2
tp71
a(g1
g2
tp72
a(Vam
p73
g2
tp74
a(g34
g2
tp75
a(Vpastry
p76
g2
tp77
a(Vlover
p78
g2
tp79
a(Vand
p80
g2
tp81
a(Vthese
p82
g2
tp83
a(Vwere
p84
g2
tp85
a(Vthe
p86
g2
tp87
a(Vbest
p88
g2
tp89
a(VI've
p90
g2
tp91
a(Vever
p92
g2
tp93
a(Vtasted.
p94
g2
tp95
a(VThe
p96
g2
tp97
a(Vpastry
p98
g2
tp99
a(Vwas
p100
g2
tp101
a(Vsoft,
p102
g2
tp103
a(Vthe
p104
g2
tp105
a(Vjam
p106
g2
tp107
a(Vwas
p108
g2
tp109
a(Vreally
p110
g2
tp111
a(Vgood
p112
g2
tp113
a(Vand
p114
g2
tp115
a(Vthe
p116
g2
tp117
a(Vtaste
p118
g2
tp119
a(Vwas
p120
g2
tp121
a(Vgreat.
p122
g2
tp123
a(VThey
p124
g2
tp125
a(Vwere
p126
g2
tp127
a(Vgone
p128
g2
tp129
a(Vin
p130
g2
tp131
a(Vno
p132
g2
tp133
a(Vtime.
p134
g2
tp135
a(VMy
p136
g2
tp137
a(Vguests
p138
g2
tp139
a(Vwere
p140
g2
tp141
a(Vreally
p142
g2
tp143
a(Vimpressed.
p144
g2
tp145
a.