(lp0
(Vi
p1
VO
p2
tp3
a(Vknow
p4
g2
tp5
a(g1
g2
tp6
a(Vcannot
p7
g2
tp8
a(Vmake
p9
g2
tp10
a(Vtea
p11
g2
tp12
a(Vthis
p13
g2
tp14
a(Vgood.
p15
g2
tp16
a(Vgranted,
p17
g2
tp18
a(g1
g2
tp19
a(Vam
p20
g2
tp21
a(Vnot
p22
g2
tp23
a(Vfrom
p24
g2
tp25
a(Vthe
p26
g2
tp27
a(Vsouth
p28
g2
tp29
a(Vbut
p30
g2
tp31
a(g1
g2
tp32
a(Vknow
p33
g2
tp34
a(g1
g2
tp35
a(Vhave
p36
g2
tp37
a(Vnever
p38
g2
tp39
a(Venjoyed
p40
g2
tp41
a(Vtea
p42
g2
tp43
a(Vthat
p44
g2
tp45
a(Vwas
p46
g2
tp47
a(Vthis
p48
g2
tp49
a(Vsweet
p50
g2
tp51
a(Vwithout
p52
g2
tp53
a(Vbeing
p54
g2
tp55
a(Vtoo
p56
g2
tp57
a(Vsweet.
p58
g2
tp59
a(Vit
p60
g2
tp61
a(Vtastes
p62
g2
tp63
a(Vcrisp.
p64
g2
tp65
a.