(lp0
(VArrived
p1
VO
p2
tp3
a(Vin
p4
g2
tp5
a(V6
p6
g2
tp7
a(Vdays
p8
g2
tp9
a(Vand
p10
g2
tp11
a(Vwere
p12
g2
tp13
a(Vso
p14
g2
tp15
a(Vstale
p16
g2
tp17
a(Vi
p18
g2
tp19
a(Vcould
p20
g2
tp21
a(Vnot
p22
g2
tp23
a(Veat
p24
g2
tp25
a(Vany
p26
g2
tp27
a(Vof
p28
g2
tp29
a(Vthe
p30
g2
tp31
a(g6
g2
tp32
a(Vbags!!
p33
g2
tp34
a.