(lp0
(VI
p1
VO
p2
tp3
a(Vreally
p4
g2
tp5
a(Vlike
p6
g2
tp7
a(Vthe
p8
g2
tp9
a(VMaple
p10
g2
tp11
a(Vand
p12
g2
tp13
a(VBrown
p14
g2
tp15
a(VSugar
p16
g2
tp17
a(Vflavor.
p18
g2
tp19
a(VThe
p20
g2
tp21
a(Vregular
p22
g2
tp23
a(Vis
p24
g2
tp25
a(Vfine
p26
g2
tp27
a(Vwith
p28
g2
tp29
a(Vbrown
p30
g2
tp31
a(Vsugar
p32
g2
tp33
a(Vadded.
p34
g2
tp35
a(VThe
p36
g2
tp37
a(VApples
p38
g2
tp39
a(Vand
p40
g2
tp41
a(VCinnamon
p42
g2
tp43
a(Vflavor
p44
g2
tp45
a(Vis
p46
g2
tp47
a(VOK.
p48
g2
tp49
a(VThis
p50
g2
tp51
a(Vis
p52
g2
tp53
a(Va
p54
g2
tp55
a(Vvery
p56
g2
tp57
a(Vquick,
p58
g2
tp59
a(Veasy
p60
g2
tp61
a(Vand
p62
g2
tp63
a(Vsatisfying
p64
g2
tp65
a(Vbreakfast
p66
g2
tp67
a(Vand
p68
g2
tp69
a(VI'll
p70
g2
tp71
a(Vorder
p72
g2
tp73
a(Vthis
p74
g2
tp75
a(Vbrand
p76
g2
tp77
a(Vagain,
p78
g2
tp79
a(Vbut
p80
g2
tp81
a(Vnot
p82
g2
tp83
a(Vthe
p84
g2
tp85
a(Vvariety.
p86
g2
tp87
a(VI'll
p88
g2
tp89
a(Vget
p90
g2
tp91
a(Vall
p92
g2
tp93
a(VMaple
p94
g2
tp95
a(Vand
p96
g2
tp97
a(VBrown
p98
VPERSON
p99
tp100
a(VSugar.
p101
VPERSON
p102
tp103
a.