(lp0
(VThis
p1
VO
p2
tp3
a(Vis
p4
g2
tp5
a(Vthe
p6
g2
tp7
a(Vsame
p8
g2
tp9
a(Vfood
p10
g2
tp11
a(Vwe
p12
g2
tp13
a(Vget
p14
g2
tp15
a(Vat
p16
g2
tp17
a(Vpet
p18
g2
tp19
a(Vstore.
p20
g2
tp21
a(VBut
p22
g2
tp23
a(Vit's
p24
g2
tp25
a(Vdelivered
p26
g2
tp27
a(Vto
p28
g2
tp29
a(Vmy
p30
g2
tp31
a(Vdoor!
p32
g2
tp33
a(VAnd
p34
g2
tp35
a(Vfor
p36
g2
tp37
a(Vthe
p38
g2
tp39
a(Vsame
p40
g2
tp41
a(Vprice
p42
g2
tp43
a(Vor
p44
g2
tp45
a(Vslightly
p46
g2
tp47
a(Vless.
p48
g2
tp49
a.