(lp0
(VThe
p1
VO
p2
tp3
a(VStrawberry
p4
g2
tp5
a(VTwizzlers
p6
g2
tp7
a(Vare
p8
g2
tp9
a(Vmy
p10
g2
tp11
a(Vguilty
p12
g2
tp13
a(Vpleasure
p14
g2
tp15
a(V-
p16
g2
tp17
a(Vyummy.
p18
g2
tp19
a(VSix
p20
g2
tp21
a(Vpounds
p22
g2
tp23
a(Vwill
p24
g2
tp25
a(Vbe
p26
g2
tp27
a(Varound
p28
g2
tp29
a(Vfor
p30
g2
tp31
a(Va
p32
g2
tp33
a(Vwhile
p34
g2
tp35
a(Vwith
p36
g2
tp37
a(Vmy
p38
g2
tp39
a(Vson
p40
g2
tp41
a(Vand
p42
g2
tp43
a(VI.
p44
g2
tp45
a.