(lp0
(VIf
p1
VO
p2
tp3
a(Vyou're
p4
g2
tp5
a(Vimpulsive
p6
g2
tp7
a(Vlike
p8
g2
tp9
a(Vme,
p10
g2
tp11
a(Vthen
p12
g2
tp13
a(V$6
p14
g2
tp15
a(Vis
p16
g2
tp17
a(Vok.
p18
g2
tp19
a(VDon't
p20
g2
tp21
a(Vget
p22
g2
tp23
a(Vme
p24
g2
tp25
a(Vwrong,
p26
g2
tp27
a(Vthe
p28
g2
tp29
a(Vquality
p30
g2
tp31
a(Vof
p32
g2
tp33
a(Vthese
p34
g2
tp35
a(Vbabies
p36
g2
tp37
a(Vis
p38
g2
tp39
a(Vvery
p40
g2
tp41
a(Vgood
p42
g2
tp43
a(Vand
p44
g2
tp45
a(VI
p46
g2
tp47
a(Vhave
p48
g2
tp49
a(Vno
p50
g2
tp51
a(Vcomplaints.
p52
g2
tp53
a(VBut
p54
g2
tp55
a(Vin
p56
g2
tp57
a(Vretrospect,
p58
g2
tp59
a(Vthe
p60
g2
tp61
a(Vprice
p62
g2
tp63
a(Vis
p64
g2
tp65
a(Va
p66
g2
tp67
a(Vlittle
p68
g2
tp69
a(Vridiculous
p70
g2
tp71
a(V(esp.
p72
g2
tp73
a(Vwhen
p74
g2
tp75
a(Vyou
p76
g2
tp77
a(Vadd
p78
g2
tp79
a(Von
p80
g2
tp81
a(Vthe
p82
g2
tp83
a(Vshipping).
p84
g2
tp85
a.