(lp0
(VMy
p1
VO
p2
tp3
a(Vhusband
p4
g2
tp5
a(Vis
p6
g2
tp7
a(Va
p8
g2
tp9
a(VTwizzlers
p10
g2
tp11
a(Vaddict.
p12
g2
tp13
a(VWe've
p14
g2
tp15
a(Vbought
p16
g2
tp17
a(Vthese
p18
g2
tp19
a(Vmany
p20
g2
tp21
a(Vtimes
p22
g2
tp23
a(Vfrom
p24
g2
tp25
a(VAmazon
p26
VORGANIZATION
p27
tp28
a(Vbecause
p29
g2
tp30
a(Vwe're
p31
g2
tp32
a(Vgovernment
p33
g2
tp34
a(Vemployees
p35
g2
tp36
a(Vliving
p37
g2
tp38
a(Voverseas
p39
g2
tp40
a(Vand
p41
g2
tp42
a(Vcan't
p43
g2
tp44
a(Vget
p45
g2
tp46
a(Vthem
p47
g2
tp48
a(Vin
p49
g2
tp50
a(Vthe
p51
g2
tp52
a(Vcountry
p53
g2
tp54
a(Vwe
p55
g2
tp56
a(Vare
p57
g2
tp58
a(Vassigned
p59
g2
tp60
a(Vto.
p61
g2
tp62
a(VThey've
p63
g2
tp64
a(Valways
p65
g2
tp66
a(Vbeen
p67
g2
tp68
a(Vfresh
p69
g2
tp70
a(Vand
p71
g2
tp72
a(Vtasty,
p73
g2
tp74
a(Vpacked
p75
g2
tp76
a(Vwell
p77
g2
tp78
a(Vand
p79
g2
tp80
a(Varrive
p81
g2
tp82
a(Vin
p83
g2
tp84
a(g8
g2
tp85
a(Vtimely
p86
g2
tp87
a(Vmanner.
p88
g2
tp89
a.