(lp0
(VThese
p1
VO
p2
tp3
a(VAlbanese
p4
g2
tp5
a(Vgummi
p6
g2
tp7
a(Vbears
p8
g2
tp9
a(Vand
p10
g2
tp11
a(Vrings
p12
g2
tp13
a(Vand
p14
g2
tp15
a(Vso
p16
g2
tp17
a(Von
p18
g2
tp19
a(Vare
p20
g2
tp21
a(Vvery
p22
g2
tp23
a(Vgood
p24
g2
tp25
a(Vand
p26
g2
tp27
a(Vtasty
p28
g2
tp29
a(Vand
p30
g2
tp31
a(Vhigh
p32
g2
tp33
a(Vquality.
p34
g2
tp35
a(VThe
p36
g2
tp37
a(Vbears
p38
g2
tp39
a(Veven
p40
g2
tp41
a(Vhave
p42
g2
tp43
a(Vlittle
p44
g2
tp45
a(Vfaces.
p46
g2
tp47
a(VAt
p48
g2
tp49
a(Vmy
p50
g2
tp51
a(Vlocal
p52
g2
tp53
a(Vcandy
p54
g2
tp55
a(Vstore
p56
g2
tp57
a(Vthis
p58
g2
tp59
a(Vtype
p60
g2
tp61
a(Vof
p62
g2
tp63
a(Vgummi
p64
g2
tp65
a(Vstuff
p66
g2
tp67
a(V(bears,
p68
g2
tp69
a(Vrings,
p70
g2
tp71
a(Vsnakes,
p72
g2
tp73
a(Vballs,
p74
g2
tp75
a(Vworms,
p76
g2
tp77
a(Vwhatever)
p78
g2
tp79
a(Vare
p80
g2
tp81
a(Vabout
p82
g2
tp83
a(V$10lb.
p84
g2
tp85
a(VThese
p86
g2
tp87
a(Vtwin
p88
g2
tp89
a(Vpacks
p90
g2
tp91
a(Vof
p92
g2
tp93
a(V4.5
p94
g2
tp95
a(Vor
p96
g2
tp97
a(V5
p98
g2
tp99
a(Vpound
p100
g2
tp101
a(Vbags
p102
g2
tp103
a(Vis
p104
g2
tp105
a(Va
p106
g2
tp107
a(Vscreaming
p108
g2
tp109
a(Vdeal
p110
g2
tp111
a(Vas
p112
g2
tp113
a(Vfar
p114
g2
tp115
a(Vas
p116
g2
tp117
a(VI'm
p118
g2
tp119
a(Vconcerned.
p120
g2
tp121
a(VI'm
p122
g2
tp123
a(Vprobably
p124
g2
tp125
a(V50
p126
g2
tp127
a(Vpounds
p128
g2
tp129
a(Vdeep
p130
g2
tp131
a(Vin
p132
g2
tp133
a(Vthese
p134
g2
tp135
a(Vfriggin'
p136
g2
tp137
a(Vthings.
p138
g2
tp139
a(VConsumed!
p140
g2
tp141
a.