(lp0
(Vthis
p1
VO
p2
tp3
a(Vwas
p4
g2
tp5
a(Vsooooo
p6
g2
tp7
a(Vdeliscious
p8
g2
tp9
a(Vbut
p10
g2
tp11
a(Vtoo
p12
g2
tp13
a(Vbad
p14
g2
tp15
a(Vi
p16
g2
tp17
a(Vate
p18
g2
tp19
a(Vem
p20
g2
tp21
a(Vtoo
p22
g2
tp23
a(Vfast
p24
g2
tp25
a(Vand
p26
g2
tp27
a(Vgained
p28
g2
tp29
a(V2
p30
g2
tp31
a(Vpds!
p32
g2
tp33
a(Vmy
p34
g2
tp35
a(Vfault
p36
g2
tp37
a.