(lp0
(VBuyer
p1
VO
p2
tp3
a(VBeware
p4
g2
tp5
a(VPlease!
p6
g2
tp7
a(VThis
p8
g2
tp9
a(Vsweetener
p10
g2
tp11
a(Vis
p12
g2
tp13
a(Vnot
p14
g2
tp15
a(Vfor
p16
g2
tp17
a(Veverybody.
p18
g2
tp19
a(VMaltitol
p20
VLOCATION
p21
tp22
a(Vis
p23
g2
tp24
a(Van
p25
g2
tp26
a(Valcohol
p27
g2
tp28
a(Vsugar
p29
g2
tp30
a(Vand
p31
g2
tp32
a(Vcan
p33
g2
tp34
a(Vbe
p35
g2
tp36
a(Vundigestible
p37
g2
tp38
a(Vin
p39
g2
tp40
a(Vthe
p41
g2
tp42
a(Vbody.
p43
g2
tp44
a(VYou
p45
g2
tp46
a(Vwill
p47
g2
tp48
a(Vknow
p49
g2
tp50
a(Va
p51
g2
tp52
a(Vshort
p53
g2
tp54
a(Vtime
p55
g2
tp56
a(Vafter
p57
g2
tp58
a(Vconsuming
p59
g2
tp60
a(Vit
p61
g2
tp62
a(Vif
p63
g2
tp64
a(Vyou
p65
g2
tp66
a(Vare
p67
g2
tp68
a(Vone
p69
g2
tp70
a(Vof
p71
g2
tp72
a(Vthe
p73
g2
tp74
a(Vunsuspecting
p75
g2
tp76
a(Vmany
p77
g2
tp78
a(Vwho
p79
g2
tp80
a(Vcannot
p81
g2
tp82
a(Vdigest
p83
g2
tp84
a(Vit
p85
g2
tp86
a(Vby
p87
g2
tp88
a(Vthe
p89
g2
tp90
a(Vextreme
p91
g2
tp92
a(Vintestinal
p93
g2
tp94
a(Vbloating
p95
g2
tp96
a(Vand
p97
g2
tp98
a(Vcramping
p99
g2
tp100
a(Vand
p101
g2
tp102
a(Vmassive
p103
g2
tp104
a(Vamounts
p105
g2
tp106
a(Vof
p107
g2
tp108
a(Vgas
p109
g2
tp110
a(g51
g2
tp111
a(Vperson
p112
g2
tp113
a(Vcan
p114
g2
tp115
a(Vexperience.
p116
g2
tp117
a(VNausea,
p118
g2
tp119
a(Vdiarrhea
p120
g2
tp121
a(V&
p122
g2
tp123
a(Vheadaches
p124
g2
tp125
a(Vcan
p126
g2
tp127
a(Valso
p128
g2
tp129
a(Vbe
p130
g2
tp131
a(Vexperienced.
p132
g2
tp133
a(VI
p134
g2
tp135
a(Vlearned
p136
g2
tp137
a(Vmy
p138
g2
tp139
a(Vlesson
p140
g2
tp141
a(Vthe
p142
g2
tp143
a(Vhard
p144
g2
tp145
a(Vway
p146
g2
tp147
a(Vyears
p148
g2
tp149
a(Vago
p150
g2
tp151
a(Vwhen
p152
g2
tp153
a(g134
g2
tp154
a(Vfell
p155
g2
tp156
a(Vin
p157
g2
tp158
a(Vlove
p159
g2
tp160
a(Vwith
p161
g2
tp162
a(Vthe
p163
g2
tp164
a(Vsugar-free
p165
g2
tp166
a(Vchocolates
p167
g2
tp168
a(Vsuzanne
p169
g2
tp170
a(Vsommers
p171
g2
tp172
a(Vused
p173
g2
tp174
a(Vto
p175
g2
tp176
a(Vsell.
p177
g2
tp178
a(g134
g2
tp179
a(Vthought
p180
g2
tp181
a(VI'd
p182
g2
tp183
a(Vfound
p184
g2
tp185
a(Vsugar-free
p186
g2
tp187
a(Vchocolate
p188
g2
tp189
a(Vnirvana
p190
g2
tp191
a(Vat
p192
g2
tp193
a(Vfirst
p194
g2
tp195
a(Vtaste
p196
g2
tp197
a(Vbut
p198
g2
tp199
a(Vthe
p200
g2
tp201
a(Vbliss
p202
g2
tp203
a(Vwas
p204
g2
tp205
a(Vshort
p206
g2
tp207
a(Vlived
p208
g2
tp209
a(Vwhen
p210
g2
tp211
a(Vthe
p212
g2
tp213
a(Vterrible
p214
g2
tp215
a(Vside
p216
g2
tp217
a(Veffects
p218
g2
tp219
a(Vof
p220
g2
tp221
a(Vmaltitol
p222
g2
tp223
a(Vkicked
p224
g2
tp225
a(Vin.
p226
g2
tp227
a(VThe
p228
g2
tp229
a(Vdiscomfort
p230
g2
tp231
a(Vwas
p232
g2
tp233
a(Vunlike
p234
g2
tp235
a(Vanything
p236
g2
tp237
a(g134
g2
tp238
a(Vhad
p239
g2
tp240
a(Vever
p241
g2
tp242
a(Vfelt
p243
g2
tp244
a(Vbefore.
p245
g2
tp246
a(g134
g2
tp247
a(Vblew
p248
g2
tp249
a(Vup
p250
g2
tp251
a(Vlike
p252
g2
tp253
a(g51
g2
tp254
a(Vballoon
p255
g2
tp256
a(Vand
p257
g2
tp258
a(Vhad
p259
g2
tp260
a(Vvery
p261
g2
tp262
a(Vpainful
p263
g2
tp264
a(Vabdominal
p265
g2
tp266
a(Vcramping.
p267
g2
tp268
a(VAs
p269
g2
tp270
a(Vthe
p271
g2
tp272
a(Vsymptoms
p273
g2
tp274
a(Vpassed,
p275
g2
tp276
a(Vthis
p277
g2
tp278
a(Vtoo
p279
g2
tp280
a(Vwas
p281
g2
tp282
a(Vvery
p283
g2
tp284
a(Vunpleasant.
p285
g2
tp286
a(VThough
p287
g2
tp288
a(Vhard
p289
g2
tp290
a(Vfor
p291
g2
tp292
a(Vme
p293
g2
tp294
a(Vto
p295
g2
tp296
a(Vbelieve
p297
g2
tp298
a(g51
g2
tp299
a(Vlow
p300
g2
tp301
a(Vcalorie
p302
g2
tp303
a(Vsweetener
p304
g2
tp305
a(Vcould
p306
g2
tp307
a(Vbe
p308
g2
tp309
a(Vthe
p310
g2
tp311
a(Vculprit,
p312
g2
tp313
a(Vall
p314
g2
tp315
a(Vsymptoms
p316
g2
tp317
a(Vwere
p318
g2
tp319
a(Vgone
p320
g2
tp321
a(Vwhen
p322
g2
tp323
a(g134
g2
tp324
a(Vstopped
p325
g2
tp326
a(Veating
p327
g2
tp328
a(Vthe
p329
g2
tp330
a(Vchocolate.
p331
g2
tp332
a(VMy
p333
g2
tp334
a(Vhunch
p335
g2
tp336
a(Vit
p337
g2
tp338
a(Vhad
p339
g2
tp340
a(Vsomething
p341
g2
tp342
a(Vto
p343
g2
tp344
a(Vdo
p345
g2
tp346
a(Vwith
p347
g2
tp348
a(Vthe
p349
g2
tp350
a(Vmaltitol
p351
g2
tp352
a(Vwere
p353
g2
tp354
a(Vunfortunately
p355
g2
tp356
a(Vconfirmed
p357
g2
tp358
a(Vfor
p359
g2
tp360
a(Vme
p361
g2
tp362
a(Vabout
p363
g2
tp364
a(g51
g2
tp365
a(Vyear
p366
g2
tp367
a(Vlater
p368
g2
tp369
a(Vwhen
p370
g2
tp371
a(g134
g2
tp372
a(Vpurchased
p373
g2
tp374
a(Vsome
p375
g2
tp376
a(Vdelicious
p377
g2
tp378
a(Vsugar-free
p379
g2
tp380
a(Vpopcorn
p381
g2
tp382
a(Vat
p383
g2
tp384
a(Vmy
p385
g2
tp386
a(Vlocal
p387
g2
tp388
a(Vmarket.
p389
g2
tp390
a(VThe
p391
g2
tp392
a(Vtaste
p393
g2
tp394
a(Vwas
p395
g2
tp396
a(Vamazing
p397
g2
tp398
a(Vand
p399
g2
tp400
a(Vwhile
p401
g2
tp402
a(g134
g2
tp403
a(Vwas
p404
g2
tp405
a(Vlooking
p406
g2
tp407
a(Vat
p408
g2
tp409
a(Vthe
p410
g2
tp411
a(Vlabel
p412
g2
tp413
a(Vwondering
p414
g2
tp415
a(Vwhat
p416
g2
tp417
a(Vcould
p418
g2
tp419
a(Vpossibly
p420
g2
tp421
a(Vmake
p422
g2
tp423
a(Vthis
p424
g2
tp425
a(Vyummy,
p426
g2
tp427
a(Vnew
p428
g2
tp429
a(Vsugarfree
p430
g2
tp431
a(Vtreat
p432
g2
tp433
a(Vtaste
p434
g2
tp435
a(Vso
p436
g2
tp437
a(Vgood,
p438
g2
tp439
a(Vmy
p440
g2
tp441
a(Vheart
p442
g2
tp443
a(Vsank
p444
g2
tp445
a(Vwhen
p446
g2
tp447
a(g134
g2
tp448
a(Vfollowed
p449
g2
tp450
a(Vthe
p451
g2
tp452
a(Vlittle
p453
g2
tp454
a(Vasterisk
p455
g2
tp456
a(Vnext
p457
g2
tp458
a(Vto
p459
g2
tp460
a(Vsugarfree
p461
g2
tp462
a(Vsweetener*
p463
g2
tp464
a(Vdown
p465
g2
tp466
a(Vto
p467
g2
tp468
a(Vthe
p469
g2
tp470
a(Vvery
p471
g2
tp472
a(Vbottom
p473
g2
tp474
a(Vof
p475
g2
tp476
a(Vthe
p477
g2
tp478
a(Vlabel
p479
g2
tp480
a(Vand
p481
g2
tp482
a(Vread
p483
g2
tp484
a(V"maltitol"
p485
g2
tp486
a(Vin
p487
g2
tp488
a(Vtiny
p489
g2
tp490
a(Vlittle
p491
g2
tp492
a(Vletters!
p493
g2
tp494
a(VThank
p495
g2
tp496
a(Vgoodness
p497
g2
tp498
a(VI'd
p499
g2
tp500
a(Veaten
p501
g2
tp502
a(Vonly
p503
g2
tp504
a(g51
g2
tp505
a(Vlittle.
p506
g2
tp507
a(g134
g2
tp508
a(Vstill
p509
g2
tp510
a(Vended
p511
g2
tp512
a(Vup
p513
g2
tp514
a(Vwith
p515
g2
tp516
a(Vall
p517
g2
tp518
a(Vthe
p519
g2
tp520
a(Vsame
p521
g2
tp522
a(Vside-effects
p523
g2
tp524
a(Vbut
p525
g2
tp526
a(Vfor
p527
g2
tp528
a(g51
g2
tp529
a(Vmuch
p530
g2
tp531
a(Vshorter
p532
g2
tp533
a(Vduration.
p534
g2
tp535
a(VSome
p536
g2
tp537
a(Vpeople
p538
g2
tp539
a(Vcan
p540
g2
tp541
a(Vuse
p542
g2
tp543
a(Vmaltitol
p544
g2
tp545
a(Vto
p546
g2
tp547
a(Vtheir
p548
g2
tp549
a(Vheart's
p550
g2
tp551
a(Vcontent
p552
g2
tp553
a(Vbut
p554
g2
tp555
a(Vothers,
p556
g2
tp557
a(Vlike
p558
g2
tp559
a(Vme,
p560
g2
tp561
a(Vcan
p562
g2
tp563
a(Vhave
p564
g2
tp565
a(g51
g2
tp566
a(Vbad
p567
g2
tp568
a(Vreaction
p569
g2
tp570
a(Vto
p571
g2
tp572
a(Vit.
p573
g2
tp574
a(VIn
p575
g2
tp576
a(Vcase
p577
g2
tp578
a(Vyou're
p579
g2
tp580
a(Vlike
p581
g2
tp582
a(Vme,
p583
g2
tp584
a(V...
p585
g2
tp586
a(Vit's
p587
g2
tp588
a(Vnot
p589
g2
tp590
a(Vyou
p591
g2
tp592
a(V...it's
p593
g2
tp594
a(Vthe
p595
g2
tp596
a(Vmaltitol!
p597
g2
tp598
a.