(lp0
(VMy
p1
VO
p2
tp3
a(V1-12
p4
g2
tp5
a(Vyear
p6
g2
tp7
a(Vold
p8
g2
tp9
a(Vbasenjijack
p10
g2
tp11
a(Vrussell
p12
g2
tp13
a(Vmix
p14
g2
tp15
a(Vloves
p16
g2
tp17
a(Vthis
p18
g2
tp19
a(Vdog
p20
g2
tp21
a(Vfood.
p22
g2
tp23
a(VHe's
p24
g2
tp25
a(Vbeen
p26
g2
tp27
a(Vnoticeably
p28
g2
tp29
a(Vhealthier
p30
g2
tp31
a(Vand
p32
g2
tp33
a(Vmore
p34
g2
tp35
a(Venergetic
p36
g2
tp37
a(Vsince
p38
g2
tp39
a(VI
p40
g2
tp41
a(Vswitched
p42
g2
tp43
a(Vhim
p44
g2
tp45
a(Vover
p46
g2
tp47
a(Vfrom
p48
g2
tp49
a(Vthe
p50
g2
tp51
a(Vstandard
p52
g2
tp53
a(Vdog
p54
g2
tp55
a(Vfoods
p56
g2
tp57
a(Vearlier
p58
g2
tp59
a(Vthis
p60
g2
tp61
a(Vyear.
p62
g2
tp63
a(VDespite
p64
g2
tp65
a(Vthe
p66
g2
tp67
a(Vhigher
p68
g2
tp69
a(Vcost
p70
g2
tp71
a(Vof
p72
g2
tp73
a(Vnatural
p74
g2
tp75
a(Vdog
p76
g2
tp77
a(Vfoods,
p78
g2
tp79
a(g40
g2
tp80
a(Vfind
p81
g2
tp82
a(Vthat
p83
g2
tp84
a(Vhe
p85
g2
tp86
a(Veats
p87
g2
tp88
a(Vsignificantly
p89
g2
tp90
a(Vless
p91
g2
tp92
a(Vof
p93
g2
tp94
a(Vthe
p95
g2
tp96
a(VNatural
p97
g2
tp98
a(VBalance
p99
g2
tp100
a(Vdog
p101
g2
tp102
a(Vfoods
p103
g2
tp104
a(Vand
p105
g2
tp106
a(Vstill
p107
g2
tp108
a(Vstays
p109
g2
tp110
a(Vhappy
p111
g2
tp112
a(Vand
p113
g2
tp114
a(Vfull.
p115
g2
tp116
a(VOn
p117
g2
tp118
a(Vthe
p119
g2
tp120
a(Vnormal
p121
g2
tp122
a(Vdog
p123
g2
tp124
a(Vfoods,
p125
g2
tp126
a(Vhe'd
p127
g2
tp128
a(Veat
p129
g2
tp130
a(Vup
p131
g2
tp132
a(Vto
p133
g2
tp134
a(V3
p135
g2
tp136
a(Vcups
p137
g2
tp138
a(Vof
p139
g2
tp140
a(Vdog
p141
g2
tp142
a(Vfood
p143
g2
tp144
a(Va
p145
g2
tp146
a(Vday
p147
g2
tp148
a(V(the
p149
g2
tp150
a(Vrecommended
p151
g2
tp152
a(Vserving
p153
g2
tp154
a(Vfor
p155
g2
tp156
a(Vhis
p157
g2
tp158
a(Vsize),
p159
g2
tp160
a(Vwhereas
p161
g2
tp162
a(Vhe
p163
g2
tp164
a(Vonly
p165
g2
tp166
a(Veats
p167
g2
tp168
a(Vabout
p169
g2
tp170
a(V1
p171
g2
tp172
a(Vcup
p173
g2
tp174
a(Vto
p175
g2
tp176
a(V1-12
p177
g2
tp178
a(Vcup
p179
g2
tp180
a(Vof
p181
g2
tp182
a(Vthe
p183
g2
tp184
a(VNatural
p185
g2
tp186
a(VBalance
p187
g2
tp188
a(Vdog
p189
g2
tp190
a(Vfood
p191
g2
tp192
a(g145
g2
tp193
a(Vday.
p194
g2
tp195
a(VWhen
p196
g2
tp197
a(Vyou
p198
g2
tp199
a(Vtake
p200
g2
tp201
a(Vthis
p202
g2
tp203
a(Vinto
p204
g2
tp205
a(Vaccount,
p206
g2
tp207
a(Vyou're
p208
g2
tp209
a(Vactually
p210
g2
tp211
a(Vgetting
p212
g2
tp213
a(Vmore
p214
g2
tp215
a(V"bang
p216
g2
tp217
a(Vfor
p218
g2
tp219
a(Vyour
p220
g2
tp221
a(Vbuck"
p222
g2
tp223
a(Vwith
p224
g2
tp225
a(Vthe
p226
g2
tp227
a(Vnatural
p228
g2
tp229
a(Vdog
p230
g2
tp231
a(Vfoods
p232
g2
tp233
a(Vsince
p234
g2
tp235
a(Vyou
p236
g2
tp237
a(Vdon't
p238
g2
tp239
a(Vhave
p240
g2
tp241
a(Vto
p242
g2
tp243
a(Vbuy
p244
g2
tp245
a(Vas
p246
g2
tp247
a(Vmuch
p248
g2
tp249
a(Vto
p250
g2
tp251
a(Vlast
p252
g2
tp253
a(Vjust
p254
g2
tp255
a(Vas
p256
g2
tp257
a(Vlong
p258
g2
tp259
a(Vas
p260
g2
tp261
a(Vthe
p262
g2
tp263
a(Vnormal
p264
g2
tp265
a(Vdog
p266
g2
tp267
a(Vfoods...
p268
g2
tp269
a(Vand
p270
g2
tp271
a(g145
g2
tp272
a(Vhealthier,
p273
g2
tp274
a(Vhappier
p275
g2
tp276
a(Vdog,
p277
g2
tp278
a(Vto
p279
g2
tp280
a(Vboot!
p281
g2
tp282
a(VAdd
p283
g2
tp284
a(Vin
p285
g2
tp286
a(Vthe
p287
g2
tp288
a(Vfact
p289
g2
tp290
a(Vthat
p291
g2
tp292
a(Vyou
p293
g2
tp294
a(Vcan
p295
g2
tp296
a(Vget
p297
g2
tp298
a(Vfree,
p299
g2
tp300
a(V2-day
p301
g2
tp302
a(Vshipping
p303
g2
tp304
a(Vwith
p305
g2
tp306
a(VAmazon
p307
VORGANIZATION
p308
tp309
a(VPrime...
p310
g2
tp311
a(VI'm
p312
g2
tp313
a(Vsold!!
p314
g2
tp315
a.