(lp0
(VI
p1
VO
p2
tp3
a(VWAS
p4
g2
tp5
a(VVISITING
p6
g2
tp7
a(VMY
p8
g2
tp9
a(VFRIEND
p10
g2
tp11
a(VNATE
p12
g2
tp13
a(VTHE
p14
g2
tp15
a(VOTHER
p16
g2
tp17
a(VMORNING
p18
g2
tp19
a(VFOR
p20
g2
tp21
a(VCOFFEE
p22
g2
tp23
a(V,
p24
g2
tp25
a(VHE
p26
g2
tp27
a(VCAME
p28
g2
tp29
a(VOUT
p30
g2
tp31
a(VOF
p32
g2
tp33
a(VHIS
p34
g2
tp35
a(VSTORAGE
p36
g2
tp37
a(VROOM
p38
g2
tp39
a(VWITH
p40
g2
tp41
a(V(
p42
g2
tp43
a(VA
p44
g2
tp45
a(VPACKET
p46
g2
tp47
a(VOF
p48
g2
tp49
a(VMcCANNS
p50
g2
tp51
a(VINSTANT
p52
g2
tp53
a(VIRISH
p54
g2
tp55
a(VOATMEAL
p56
g2
tp57
a(V.)
p58
g2
tp59
a(VHE
p60
g2
tp61
a(VSUGGESTED
p62
g2
tp63
a(VTHAT
p64
g2
tp65
a(g1
g2
tp66
a(VTRY
p67
g2
tp68
a(VIT
p69
g2
tp70
a(VFOR
p71
g2
tp72
a(VMY
p73
g2
tp74
a(VOWN
p75
g2
tp76
a(VUSE
p77
g2
tp78
a(V,IN
p79
g2
tp80
a(VMY
p81
g2
tp82
a(VSTASH
p83
g2
tp84
a(V.
p85
g2
tp86
a(VSOMETIMES
p87
g2
tp88
a(VNATE
p89
g2
tp90
a(VDOSE
p91
g2
tp92
a(VNOT
p93
g2
tp94
a(VGIVE
p95
g2
tp96
a(VYOU
p97
g2
tp98
a(g44
g2
tp99
a(VCHANCE
p100
g2
tp101
a(VTO
p102
g2
tp103
a(VSAY
p104
g2
tp105
a(VNO
p106
g2
tp107
a(g24
g2
tp108
a(VSO
p109
g2
tp110
a(g1
g2
tp111
a(VENDED
p112
g2
tp113
a(VUP
p114
g2
tp115
a(VTRYING
p116
g2
tp117
a(VTHE
p118
g2
tp119
a(VAPPLE
p120
g2
tp121
a(VAND
p122
g2
tp123
a(VCINN
p124
g2
tp125
a(g85
g2
tp126
a(VFOUND
p127
g2
tp128
a(VIT
p129
g2
tp130
a(VTO
p131
g2
tp132
a(VBE
p133
g2
tp134
a(VVERY
p135
g2
tp136
a(VTASTEFULL
p137
g2
tp138
a(VWHEN
p139
g2
tp140
a(VMADE
p141
g2
tp142
a(VWITH
p143
g2
tp144
a(VWATER
p145
g2
tp146
a(VOR
p147
g2
tp148
a(VPOWDERED
p149
g2
tp150
a(VMILK
p151
g2
tp152
a(g85
g2
tp153
a(VIT
p154
g2
tp155
a(VGOES
p156
g2
tp157
a(VGOOD
p158
g2
tp159
a(VWITH
p160
g2
tp161
a(VO.J.
p162
g2
tp163
a(VAND
p164
g2
tp165
a(VCOFFEE
p166
g2
tp167
a(VAND
p168
g2
tp169
a(g44
g2
tp170
a(VSLICE
p171
g2
tp172
a(VOF
p173
g2
tp174
a(VTOAST
p175
g2
tp176
a(VAND
p177
g2
tp178
a(VYOUR
p179
g2
tp180
a(VREADY
p181
g2
tp182
a(VTO
p183
g2
tp184
a(VTAKE
p185
g2
tp186
a(VON
p187
g2
tp188
a(VTHE
p189
g2
tp190
a(VWORLD...OR
p191
g2
tp192
a(VTHE
p193
g2
tp194
a(VDAY
p195
g2
tp196
a(VAT
p197
g2
tp198
a(VLEAST..
p199
g2
tp200
a(VJERRY
p201
VPERSON
p202
tp203
a(VREITH...
p204
VPERSON
p205
tp206
a.