(lp0
(VWatch
p1
VO
p2
tp3
a(Vyour
p4
g2
tp5
a(Vprices
p6
g2
tp7
a(Vwith
p8
g2
tp9
a(Vthis.
p10
g2
tp11
a(VWhile
p12
g2
tp13
a(Vthe
p14
g2
tp15
a(Vassortment
p16
g2
tp17
a(Vwas
p18
g2
tp19
a(Vgood,
p20
g2
tp21
a(Vand
p22
g2
tp23
a(VI
p24
g2
tp25
a(Vdid
p26
g2
tp27
a(Vget
p28
g2
tp29
a(Vthis
p30
g2
tp31
a(Von
p32
g2
tp33
a(Va
p34
g2
tp35
a(Vgold
p36
g2
tp37
a(Vbox
p38
g2
tp39
a(Vpurchase,
p40
g2
tp41
a(Vthe
p42
g2
tp43
a(Vprice
p44
g2
tp45
a(Vfor
p46
g2
tp47
a(Vthis
p48
g2
tp49
a(Vwas$3-4
p50
g2
tp51
a(Vless
p52
g2
tp53
a(Vat
p54
g2
tp55
a(VTarget.
p56
g2
tp57
a.