(lp0
(VI
p1
VO
p2
tp3
a(Vhave
p4
g2
tp5
a(Vnever
p6
g2
tp7
a(Vbeen
p8
g2
tp9
a(Va
p10
g2
tp11
a(Vhuge
p12
g2
tp13
a(Vcoffee
p14
g2
tp15
a(Vfan.
p16
g2
tp17
a(VHowever,
p18
g2
tp19
a(Vmy
p20
g2
tp21
a(Vmother
p22
g2
tp23
a(Vpurchased
p24
g2
tp25
a(Vthis
p26
g2
tp27
a(Vlittle
p28
g2
tp29
a(Vmachine
p30
g2
tp31
a(Vand
p32
g2
tp33
a(Vtalked
p34
g2
tp35
a(Vme
p36
g2
tp37
a(Vinto
p38
g2
tp39
a(Vtrying
p40
g2
tp41
a(Vthe
p42
g2
tp43
a(VLatte
p44
VORGANIZATION
p45
tp46
a(VMacciato.
p47
VORGANIZATION
p48
tp49
a(VNo
p50
VORGANIZATION
p51
tp52
a(VCoffee
p53
VORGANIZATION
p54
tp55
a(VShop
p56
VORGANIZATION
p57
tp58
a(Vhas
p59
g2
tp60
a(g10
g2
tp61
a(Vbetter
p62
g2
tp63
a(Vone
p64
g2
tp65
a(Vand
p66
g2
tp67
a(g1
g2
tp68
a(Vlike
p69
g2
tp70
a(Vmost
p71
g2
tp72
a(Vof
p73
g2
tp74
a(Vthe
p75
g2
tp76
a(Vother
p77
g2
tp78
a(Vproducts,
p79
g2
tp80
a(Vtoo
p81
g2
tp82
a(V(as
p83
g2
tp84
a(g10
g2
tp85
a(Vusually
p86
g2
tp87
a(Vnon-coffee
p88
g2
tp89
a(Vdrinker!).The
p90
g2
tp91
a(Vlittle
p92
g2
tp93
a(VDolche
p94
g2
tp95
a(VGuesto
p96
g2
tp97
a(VMachine
p98
g2
tp99
a(Vis
p100
g2
tp101
a(Vsuper
p102
g2
tp103
a(Veasy
p104
g2
tp105
a(Vto
p106
g2
tp107
a(Vuse
p108
g2
tp109
a(Vand
p110
g2
tp111
a(Vprepares
p112
g2
tp113
a(g10
g2
tp114
a(Vreally
p115
g2
tp116
a(Vgood
p117
g2
tp118
a(VCoffeeLatteCappuccinoetc
p119
g2
tp120
a(Vin
p121
g2
tp122
a(Vless
p123
g2
tp124
a(Vthan
p125
g2
tp126
a(g10
g2
tp127
a(Vminute
p128
g2
tp129
a(V(if
p130
g2
tp131
a(Vwater
p132
g2
tp133
a(Vis
p134
g2
tp135
a(Vheated
p136
g2
tp137
a(Vup).
p138
g2
tp139
a(g1
g2
tp140
a(Vwould
p141
g2
tp142
a(Vrecommend
p143
g2
tp144
a(Vthe
p145
g2
tp146
a(VDolce
p147
g2
tp148
a(VGusto
p149
g2
tp150
a(Vto
p151
g2
tp152
a(Vanyone.
p153
g2
tp154
a(VToo
p155
g2
tp156
a(Vgood
p157
g2
tp158
a(Vfor
p159
g2
tp160
a(Vthe
p161
g2
tp162
a(Vprice
p163
g2
tp164
a(Vand
p165
g2
tp166
a(VI'am
p167
g2
tp168
a(Vgetting
p169
g2
tp170
a(Vone
p171
g2
tp172
a(Vmyself!
p173
g2
tp174
a(V:)
p175
g2
tp176
a.