(lp0
(VI
p1
VO
p2
tp3
a(Vgot
p4
g2
tp5
a(Vthis
p6
g2
tp7
a(Vfor
p8
g2
tp9
a(Vmy
p10
g2
tp11
a(VMum
p12
g2
tp13
a(Vwho
p14
g2
tp15
a(Vis
p16
g2
tp17
a(Vnot
p18
g2
tp19
a(Vdiabetic
p20
g2
tp21
a(Vbut
p22
g2
tp23
a(Vneeds
p24
g2
tp25
a(Vto
p26
g2
tp27
a(Vwatch
p28
g2
tp29
a(Vher
p30
g2
tp31
a(Vsugar
p32
g2
tp33
a(Vintake,
p34
g2
tp35
a(Vand
p36
g2
tp37
a(Vmy
p38
g2
tp39
a(Vfather
p40
g2
tp41
a(Vwho
p42
g2
tp43
a(Vsimply
p44
g2
tp45
a(Vchooses
p46
g2
tp47
a(Vto
p48
g2
tp49
a(Vlimit
p50
g2
tp51
a(Vunnecessary
p52
g2
tp53
a(Vsugar
p54
g2
tp55
a(Vintake
p56
g2
tp57
a(V-
p58
g2
tp59
a(Vshe's
p60
g2
tp61
a(Vthe
p62
g2
tp63
a(Vone
p64
g2
tp65
a(Vwith
p66
g2
tp67
a(Vthe
p68
g2
tp69
a(Vsweet
p70
g2
tp71
a(Vtooth
p72
g2
tp73
a(g58
g2
tp74
a(Vthey
p75
g2
tp76
a(Vboth
p77
g2
tp78
a(VLOVED
p79
g2
tp80
a(Vthese
p81
g2
tp82
a(Vtoffees,
p83
g2
tp84
a(Vyou
p85
g2
tp86
a(Vwould
p87
g2
tp88
a(Vnever
p89
g2
tp90
a(Vguess
p91
g2
tp92
a(Vthat
p93
g2
tp94
a(Vthey're
p95
g2
tp96
a(Vsugar-free
p97
g2
tp98
a(Vand
p99
g2
tp100
a(Vit's
p101
g2
tp102
a(Vso
p103
g2
tp104
a(Vgreat
p105
g2
tp106
a(Vthat
p107
g2
tp108
a(Vyou
p109
g2
tp110
a(Vcan
p111
g2
tp112
a(Veat
p113
g2
tp114
a(Vthem
p115
g2
tp116
a(Vpretty
p117
g2
tp118
a(Vmuch
p119
g2
tp120
a(Vguilt
p121
g2
tp122
a(Vfree!
p123
g2
tp124
a(Vi
p125
g2
tp126
a(Vwas
p127
g2
tp128
a(Vso
p129
g2
tp130
a(Vimpressed
p131
g2
tp132
a(Vthat
p133
g2
tp134
a(Vi've
p135
g2
tp136
a(Vordered
p137
g2
tp138
a(Vsome
p139
g2
tp140
a(Vfor
p141
g2
tp142
a(Vmyself
p143
g2
tp144
a(V(w
p145
g2
tp146
a(Vdark
p147
g2
tp148
a(Vchocolate)
p149
g2
tp150
a(Vto
p151
g2
tp152
a(Vtake
p153
g2
tp154
a(Vto
p155
g2
tp156
a(Vthe
p157
g2
tp158
a(Voffice
p159
g2
tp160
a(Vso
p161
g2
tp162
a(Vi'll
p163
g2
tp164
a(Veat
p165
g2
tp166
a(Vthem
p167
g2
tp168
a(Vinstead
p169
g2
tp170
a(Vof
p171
g2
tp172
a(Vsnacking
p173
g2
tp174
a(Von
p175
g2
tp176
a(Vsugary
p177
g2
tp178
a(Vsweets.These
p179
g2
tp180
a(Vare
p181
g2
tp182
a(Vjust
p183
g2
tp184
a(VEXCELLENT!
p185
g2
tp186
a.