(lp0
(VI
p1
VO
p2
tp3
a(Vlove
p4
g2
tp5
a(Vthis
p6
g2
tp7
a(Vcandy.
p8
g2
tp9
a(VAfter
p10
g2
tp11
a(Vweight
p12
g2
tp13
a(Vwatchers
p14
g2
tp15
a(g1
g2
tp16
a(Vhad
p17
g2
tp18
a(Vto
p19
g2
tp20
a(Vcut
p21
g2
tp22
a(Vback
p23
g2
tp24
a(Vbut
p25
g2
tp26
a(Vstill
p27
g2
tp28
a(Vhave
p29
g2
tp30
a(Va
p31
g2
tp32
a(Vcraving
p33
g2
tp34
a(Vfor
p35
g2
tp36
a(Vit.
p37
g2
tp38
a.