(lp0
(VThe
p1
VO
p2
tp3
a(Vcandy
p4
g2
tp5
a(Vis
p6
g2
tp7
a(Vjust
p8
g2
tp9
a(Vred
p10
g2
tp11
a(V,
p12
g2
tp13
a(VNo
p14
g2
tp15
a(Vflavor
p16
g2
tp17
a(V.
p18
g2
tp19
a(VJust
p20
g2
tp21
a(Vplan
p22
g2
tp23
a(Vand
p24
g2
tp25
a(Vchewy
p26
g2
tp27
a(g18
g2
tp28
a(VI
p29
g2
tp30
a(Vwould
p31
g2
tp32
a(Vnever
p33
g2
tp34
a(Vbuy
p35
g2
tp36
a(Vthem
p37
g2
tp38
a(Vagain
p39
g2
tp40
a.