(lp0
(VThe
p1
VO
p2
tp3
a(Vflavors
p4
g2
tp5
a(Vare
p6
g2
tp7
a(Vgood.
p8
g2
tp9
a(VHowever,
p10
g2
tp11
a(VI
p12
g2
tp13
a(Vdo
p14
g2
tp15
a(Vnot
p16
g2
tp17
a(Vsee
p18
g2
tp19
a(Vany
p20
g2
tp21
a(Vdifferce
p22
g2
tp23
a(Vbetween
p24
g2
tp25
a(Vthis
p26
g2
tp27
a(Vand
p28
g2
tp29
a(VOaker
p30
VORGANIZATION
p31
tp32
a(VOats
p33
VORGANIZATION
p34
tp35
a(Vbrand
p36
g2
tp37
a(V-
p38
g2
tp39
a(Vthey
p40
g2
tp41
a(Vare
p42
g2
tp43
a(Vboth
p44
g2
tp45
a(Vmushy.
p46
g2
tp47
a.