(lp0
(VFor
p1
VO
p2
tp3
a(Vthose
p4
g2
tp5
a(Vof
p6
g2
tp7
a(Vus
p8
g2
tp9
a(Von
p10
g2
tp11
a(Va
p12
g2
tp13
a(Vlow
p14
g2
tp15
a(Vcarb
p16
g2
tp17
a(Vdiet
p18
g2
tp19
a(Vthese
p20
g2
tp21
a(Vlittle
p22
g2
tp23
a(Vtablets
p24
g2
tp25
a(Vare
p26
g2
tp27
a(Vjust
p28
g2
tp29
a(Vthe
p30
g2
tp31
a(Vthing.Two
p32
g2
tp33
a(Vyears
p34
g2
tp35
a(Vago
p36
g2
tp37
a(VI
p38
g2
tp39
a(Vstarted
p40
g2
tp41
a(Vcycling
p42
g2
tp43
a(Vagain
p44
g2
tp45
a(Vafter
p46
g2
tp47
a(Vmany
p48
g2
tp49
a(Vyears
p50
g2
tp51
a(Vbut
p52
g2
tp53
a(Vwas
p54
g2
tp55
a(Vhaving
p56
g2
tp57
a(Vheart
p58
g2
tp59
a(Varrhythmia
p60
g2
tp61
a(Vafter
p62
g2
tp63
a(Vlonger
p64
g2
tp65
a(Vrides
p66
g2
tp67
a(Vin
p68
g2
tp69
a(Vhigh
p70
g2
tp71
a(Vheat.
p72
g2
tp73
a(g38
g2
tp74
a(Vwas
p75
g2
tp76
a(Vdrinking
p77
g2
tp78
a(Vplain
p79
g2
tp80
a(Vwater
p81
g2
tp82
a(Vbut
p83
g2
tp84
a(Vdid
p85
g2
tp86
a(g12
g2
tp87
a(Vlittle
p88
g2
tp89
a(Vresearch
p90
g2
tp91
a(Vand
p92
g2
tp93
a(Vthought
p94
g2
tp95
a(Velectrolytes
p96
g2
tp97
a(Vmight
p98
g2
tp99
a(Vbe
p100
g2
tp101
a(Vthe
p102
g2
tp103
a(Vissue.
p104
g2
tp105
a(VGatorade
p106
g2
tp107
a(Vwasn't
p108
g2
tp109
a(Van
p110
g2
tp111
a(Voption
p112
g2
tp113
a(Vbecause
p114
g2
tp115
a(Vit
p116
g2
tp117
a(Vis
p118
g2
tp119
a(Vso
p120
g2
tp121
a(Vloaded
p122
g2
tp123
a(Vwith
p124
g2
tp125
a(Vcarbohydrates
p126
g2
tp127
a(Vso
p128
g2
tp129
a(g38
g2
tp130
a(Vlooked
p131
g2
tp132
a(Varound
p133
g2
tp134
a(Vfor
p135
g2
tp136
a(g12
g2
tp137
a(Vlow-carb
p138
g2
tp139
a(Valternative.
p140
g2
tp141
a(VThe
p142
g2
tp143
a(V"zero
p144
g2
tp145
a(Vcarb"
p146
g2
tp147
a(Vsports
p148
g2
tp149
a(Vdrinks
p150
g2
tp151
a(Vdidn't
p152
g2
tp153
a(Vhelp
p154
g2
tp155
a(Vso
p156
g2
tp157
a(Vwhat
p158
g2
tp159
a(Vto
p160
g2
tp161
a(Vdo?
p162
g2
tp163
a(VOne
p164
g2
tp165
a(Vday
p166
g2
tp167
a(g38
g2
tp168
a(Vran
p169
g2
tp170
a(Vacross
p171
g2
tp172
a(Vthese
p173
g2
tp174
a(Vat
p175
g2
tp176
a(Vmy
p177
g2
tp178
a(Vbike
p179
g2
tp180
a(Vshop
p181
g2
tp182
a(Vso
p183
g2
tp184
a(Vtried
p185
g2
tp186
a(g12
g2
tp187
a(Vtube
p188
g2
tp189
a(Vof
p190
g2
tp191
a(Vthem.....voila!...problem
p192
g2
tp193
a(Vsolved!!I've
p194
g2
tp195
a(Vshared
p196
g2
tp197
a(Vthem
p198
g2
tp199
a(Vwith
p200
g2
tp201
a(Vtwo
p202
g2
tp203
a(Vfriends
p204
g2
tp205
a(Vin
p206
g2
tp207
a(Vparticular
p208
g2
tp209
a(Vwhose
p210
g2
tp211
a(Vproblems
p212
g2
tp213
a(Vwith
p214
g2
tp215
a(Vleg
p216
g2
tp217
a(Vcramps
p218
g2
tp219
a(Vwere
p220
g2
tp221
a(Vresolved
p222
g2
tp223
a(Vwhile
p224
g2
tp225
a(Vusing
p226
g2
tp227
a(Vthese.These
p228
g2
tp229
a(Vguys
p230
g2
tp231
a(Vgot
p232
g2
tp233
a(Vit
p234
g2
tp235
a(Vright
p236
g2
tp237
a(V--
p238
g2
tp239
a(Vthey
p240
g2
tp241
a(Vare
p242
g2
tp243
a(Vsuperbly
p244
g2
tp245
a(Vformulated
p246
g2
tp247
a(Vand
p248
g2
tp249
a(Vsimply
p250
g2
tp251
a(Vwork.....
p252
g2
tp253
a.