(lp0
(VMy
p1
VO
p2
tp3
a(Vcats
p4
g2
tp5
a(Vhave
p6
g2
tp7
a(Vbeen
p8
g2
tp9
a(Vhappily
p10
g2
tp11
a(Veating
p12
g2
tp13
a(VFelidae
p14
g2
tp15
a(VPlatinum
p16
g2
tp17
a(Vfor
p18
g2
tp19
a(Vmore
p20
g2
tp21
a(Vthan
p22
g2
tp23
a(Vtwo
p24
g2
tp25
a(Vyears.
p26
g2
tp27
a(VI
p28
g2
tp29
a(Vjust
p30
g2
tp31
a(Vgot
p32
g2
tp33
a(Va
p34
g2
tp35
a(Vnew
p36
g2
tp37
a(Vbag
p38
g2
tp39
a(Vand
p40
g2
tp41
a(Vthe
p42
g2
tp43
a(Vshape
p44
g2
tp45
a(Vof
p46
g2
tp47
a(Vthe
p48
g2
tp49
a(Vfood
p50
g2
tp51
a(Vis
p52
g2
tp53
a(Vdifferent.
p54
g2
tp55
a(VThey
p56
g2
tp57
a(Vtried
p58
g2
tp59
a(Vthe
p60
g2
tp61
a(Vnew
p62
g2
tp63
a(Vfood
p64
g2
tp65
a(Vwhen
p66
g2
tp67
a(g28
g2
tp68
a(Vfirst
p69
g2
tp70
a(Vput
p71
g2
tp72
a(Vit
p73
g2
tp74
a(Vin
p75
g2
tp76
a(Vtheir
p77
g2
tp78
a(Vbowls
p79
g2
tp80
a(Vand
p81
g2
tp82
a(Vnow
p83
g2
tp84
a(Vthe
p85
g2
tp86
a(Vbowls
p87
g2
tp88
a(Vsit
p89
g2
tp90
a(Vfull
p91
g2
tp92
a(Vand
p93
g2
tp94
a(Vthe
p95
g2
tp96
a(Vkitties
p97
g2
tp98
a(Vwill
p99
g2
tp100
a(Vnot
p101
g2
tp102
a(Vtouch
p103
g2
tp104
a(Vthe
p105
g2
tp106
a(Vfood.
p107
g2
tp108
a(VI've
p109
g2
tp110
a(Vnoticed
p111
g2
tp112
a(Vsimilar
p113
g2
tp114
a(Vreviews
p115
g2
tp116
a(Vrelated
p117
g2
tp118
a(Vto
p119
g2
tp120
a(Vformula
p121
g2
tp122
a(Vchanges
p123
g2
tp124
a(Vin
p125
g2
tp126
a(Vthe
p127
g2
tp128
a(Vpast.
p129
g2
tp130
a(VUnfortunately,
p131
g2
tp132
a(g28
g2
tp133
a(Vnow
p134
g2
tp135
a(Vneed
p136
g2
tp137
a(Vto
p138
g2
tp139
a(Vfind
p140
g2
tp141
a(g34
g2
tp142
a(Vnew
p143
g2
tp144
a(Vfood
p145
g2
tp146
a(Vthat
p147
g2
tp148
a(Vmy
p149
g2
tp150
a(Vcats
p151
g2
tp152
a(Vwill
p153
g2
tp154
a(Veat.
p155
g2
tp156
a.