(lp0
(VI
p1
VO
p2
tp3
a(Vpurchased
p4
g2
tp5
a(Vthe
p6
g2
tp7
a(VMango
p8
g2
tp9
a(Vflavor,
p10
g2
tp11
a(Vand
p12
g2
tp13
a(Vto
p14
g2
tp15
a(Vme
p16
g2
tp17
a(Vit
p18
g2
tp19
a(Vdoesn't
p20
g2
tp21
a(Vtake
p22
g2
tp23
a(Vlike
p24
g2
tp25
a(VMango
p26
g2
tp27
a(Vat
p28
g2
tp29
a(Vall.
p30
g2
tp31
a(VThere
p32
g2
tp33
a(Vis
p34
g2
tp35
a(Vno
p36
g2
tp37
a(Vhint
p38
g2
tp39
a(Vof
p40
g2
tp41
a(Vsweetness,
p42
g2
tp43
a(Vand
p44
g2
tp45
a(Vunfortunately
p46
g2
tp47
a(Vthere
p48
g2
tp49
a(Vis
p50
g2
tp51
a(Va
p52
g2
tp53
a(Vhint
p54
g2
tp55
a(Vor
p56
g2
tp57
a(Vaftertaste
p58
g2
tp59
a(Valmost
p60
g2
tp61
a(Vlike
p62
g2
tp63
a(Vlicorice.
p64
g2
tp65
a(VI've
p66
g2
tp67
a(Vbeen
p68
g2
tp69
a(Vconsuming
p70
g2
tp71
a(Vvarious
p72
g2
tp73
a(Vsports
p74
g2
tp75
a(Vnutrition
p76
g2
tp77
a(Vproducts
p78
g2
tp79
a(Vfor
p80
g2
tp81
a(Vdecades,
p82
g2
tp83
a(Vso
p84
g2
tp85
a(VI'm
p86
g2
tp87
a(Vfamiliar
p88
g2
tp89
a(Vand
p90
g2
tp91
a(Vhave
p92
g2
tp93
a(Vcome
p94
g2
tp95
a(Vto
p96
g2
tp97
a(Vlike
p98
g2
tp99
a(Vthe
p100
g2
tp101
a(Vtaste
p102
g2
tp103
a(Vof
p104
g2
tp105
a(Vthe
p106
g2
tp107
a(Vmost
p108
g2
tp109
a(Vof
p110
g2
tp111
a(Vthe
p112
g2
tp113
a(Vproducts
p114
g2
tp115
a(VI've
p116
g2
tp117
a(Vtried.
p118
g2
tp119
a(VThe
p120
g2
tp121
a(Vmango
p122
g2
tp123
a(Vflavor
p124
g2
tp125
a(Vis
p126
g2
tp127
a(Vone
p128
g2
tp129
a(Vof
p130
g2
tp131
a(Vthe
p132
g2
tp133
a(Vleast
p134
g2
tp135
a(Vappealing
p136
g2
tp137
a(VI've
p138
g2
tp139
a(Vtasted.
p140
g2
tp141
a(VIt's
p142
g2
tp143
a(Vnot
p144
g2
tp145
a(Vterrible,
p146
g2
tp147
a(Vbut
p148
g2
tp149
a(Vit's
p150
g2
tp151
a(Vbad
p152
g2
tp153
a(Venough
p154
g2
tp155
a(Vthat
p156
g2
tp157
a(g1
g2
tp158
a(Vnotice
p159
g2
tp160
a(Vthe
p161
g2
tp162
a(Vbad
p163
g2
tp164
a(Vtaste
p165
g2
tp166
a(Vevery
p167
g2
tp168
a(Vsip
p169
g2
tp170
a(g1
g2
tp171
a(Vtake.
p172
g2
tp173
a.