(lp0
(VOur
p1
VO
p2
tp3
a(Vpup
p4
g2
tp5
a(Vhas
p6
g2
tp7
a(Vexperienced
p8
g2
tp9
a(Vallergies
p10
g2
tp11
a(Vin
p12
g2
tp13
a(Vforms
p14
g2
tp15
a(Vof
p16
g2
tp17
a(Vhotspots
p18
g2
tp19
a(Vand
p20
g2
tp21
a(Vitching
p22
g2
tp23
a(Vfrom
p24
g2
tp25
a(Vother
p26
g2
tp27
a(Vdog
p28
g2
tp29
a(Vfoods.
p30
g2
tp31
a(VThe
p32
g2
tp33
a(Vcheap
p34
g2
tp35
a(V'you
p36
g2
tp37
a(Vcan
p38
g2
tp39
a(Vbuy
p40
g2
tp41
a(Vit
p42
g2
tp43
a(Vanywhere'
p44
g2
tp45
a(Vfood
p46
g2
tp47
a(Vnot
p48
g2
tp49
a(Vonly
p50
g2
tp51
a(Vhave
p52
g2
tp53
a(Vcrazy
p54
g2
tp55
a(Vpreservatives
p56
g2
tp57
a(Vin
p58
g2
tp59
a(Vthem
p60
g2
tp61
a(Vbut
p62
g2
tp63
a(Vcan
p64
g2
tp65
a(Vcause
p66
g2
tp67
a(Vhealth
p68
g2
tp69
a(Vproblems
p70
g2
tp71
a(Vfor
p72
g2
tp73
a(Vyour
p74
g2
tp75
a(Vpets.
p76
g2
tp77
a(VThis
p78
g2
tp79
a(Vfood
p80
g2
tp81
a(Vworks
p82
g2
tp83
a(Vwonders
p84
g2
tp85
a(Von
p86
g2
tp87
a(Vreducing
p88
g2
tp89
a(Vallergies
p90
g2
tp91
a(Vand
p92
g2
tp93
a(Vour
p94
g2
tp95
a(Vdog
p96
g2
tp97
a(Vloves
p98
g2
tp99
a(Vthe
p100
g2
tp101
a(Vfood.This
p102
g2
tp103
a(Vmessage
p104
g2
tp105
a(Vis
p106
g2
tp107
a(VRAMSEY
p108
g2
tp109
a(VFrAnkenSteiN
p110
g2
tp111
a(Vapproved.
p112
g2
tp113
a.