(lp0
(VIt
p1
VO
p2
tp3
a(Vis
p4
g2
tp5
a(Vchocolate,
p6
g2
tp7
a(Vwhat
p8
g2
tp9
a(Vcan
p10
g2
tp11
a(VI
p12
g2
tp13
a(Vsay.
p14
g2
tp15
a(VGreat
p16
g2
tp17
a(Vvariety
p18
g2
tp19
a(Vof
p20
g2
tp21
a(Veverything
p22
g2
tp23
a(Vour
p24
g2
tp25
a(Vfamily
p26
g2
tp27
a(Vloves.
p28
g2
tp29
a(VWith
p30
g2
tp31
a(Va
p32
g2
tp33
a(Vfamily
p34
g2
tp35
a(Vof
p36
g2
tp37
a(Vsix
p38
g2
tp39
a(Vit
p40
g2
tp41
a(Vgoes
p42
g2
tp43
a(Vfast
p44
g2
tp45
a(Vhere.
p46
g2
tp47
a(VPerfect
p48
g2
tp49
a(Vvariety.
p50
g2
tp51
a(VKit
p52
g2
tp53
a(VKat,
p54
g2
tp55
a(VReeses,
p56
g2
tp57
a(Vtake
p58
g2
tp59
a(Vfive
p60
g2
tp61
a(Vand
p62
g2
tp63
a(Vmore.
p64
g2
tp65
a.