(lp0
(VThis
p1
VO
p2
tp3
a(Vtaffy
p4
g2
tp5
a(Vis
p6
g2
tp7
a(Vso
p8
g2
tp9
a(Vgood.
p10
g2
tp11
a(VIt
p12
g2
tp13
a(Vis
p14
g2
tp15
a(Vvery
p16
g2
tp17
a(Vsoft
p18
g2
tp19
a(Vand
p20
g2
tp21
a(Vchewy.
p22
g2
tp23
a(VThe
p24
g2
tp25
a(Vflavors
p26
g2
tp27
a(Vare
p28
g2
tp29
a(Vamazing.
p30
g2
tp31
a(VI
p32
g2
tp33
a(Vwould
p34
g2
tp35
a(Vdefinitely
p36
g2
tp37
a(Vrecommend
p38
g2
tp39
a(Vyou
p40
g2
tp41
a(Vbuying
p42
g2
tp43
a(Vit.
p44
g2
tp45
a(VVery
p46
g2
tp47
a(Vsatisfying!!
p48
g2
tp49
a.