(lp0
(VMy
p1
VO
p2
tp3
a(VEnglish
p4
g2
tp5
a(VBulldog
p6
g2
tp7
a(Vhad
p8
g2
tp9
a(Vskin
p10
g2
tp11
a(Vallergies
p12
g2
tp13
a(Vthe
p14
g2
tp15
a(Vsummer
p16
g2
tp17
a(Vwe
p18
g2
tp19
a(Vgot
p20
g2
tp21
a(Vhim
p22
g2
tp23
a(Vat
p24
g2
tp25
a(Vage
p26
g2
tp27
a(V3.
p28
g2
tp29
a(VThe
p30
g2
tp31
a(Vvet
p32
g2
tp33
a(Vrecommended
p34
g2
tp35
a(Vwe
p36
g2
tp37
a(Vwean
p38
g2
tp39
a(Vhim
p40
g2
tp41
a(Voff
p42
g2
tp43
a(Vthe
p44
g2
tp45
a(Vfood
p46
g2
tp47
a(Vhis
p48
g2
tp49
a(Vprevious
p50
g2
tp51
a(Vowner
p52
g2
tp53
a(Vgave
p54
g2
tp55
a(Vhim
p56
g2
tp57
a(V(Iams
p58
g2
tp59
a(VLamb
p60
g2
tp61
a(Vand
p62
g2
tp63
a(VRice)
p64
g2
tp65
a(Vand
p66
g2
tp67
a(Vonto
p68
g2
tp69
a(Va
p70
g2
tp71
a(Vnew
p72
g2
tp73
a(Vkind.
p74
g2
tp75
a(VThis
p76
g2
tp77
a(Vwas
p78
g2
tp79
a(Vthe
p80
g2
tp81
a(Vsecond
p82
g2
tp83
a(Vone
p84
g2
tp85
a(Vwe
p86
g2
tp87
a(Vtried,
p88
g2
tp89
a(Vand
p90
g2
tp91
a(Vit
p92
g2
tp93
a(Vhas
p94
g2
tp95
a(Vbeen
p96
g2
tp97
a(Vworking
p98
g2
tp99
a(Vever
p100
g2
tp101
a(Vsince.
p102
g2
tp103
a(VIt's
p104
g2
tp105
a(Vfor
p106
g2
tp107
a(Vdogs
p108
g2
tp109
a(Vthat
p110
g2
tp111
a(Vneed
p112
g2
tp113
a(g70
g2
tp114
a(Vlimited
p115
g2
tp116
a(Vdiet
p117
g2
tp118
a(Vwho
p119
g2
tp120
a(Vcan
p121
g2
tp122
a(Vbe
p123
g2
tp124
a(Vsensitive
p125
g2
tp126
a(Vto
p127
g2
tp128
a(Vadditives
p129
g2
tp130
a(Vand
p131
g2
tp132
a(Vproteins
p133
g2
tp134
a(Vcommonly
p135
g2
tp136
a(Vfound
p137
g2
tp138
a(Vin
p139
g2
tp140
a(Vcommercial
p141
g2
tp142
a(Vdog
p143
g2
tp144
a(Vfood
p145
g2
tp146
a(V(like
p147
g2
tp148
a(Vchicken
p149
g2
tp150
a(Vor
p151
g2
tp152
a(Vbeef).
p153
g2
tp154
a.