(lp0
(VProduct
p1
VO
p2
tp3
a(Varrived
p4
g2
tp5
a(Vlabeled
p6
g2
tp7
a(Vas
p8
g2
tp9
a(VJumbo
p10
g2
tp11
a(VSalted
p12
g2
tp13
a(VPeanuts...the
p14
g2
tp15
a(Vpeanuts
p16
g2
tp17
a(Vwere
p18
g2
tp19
a(Vactually
p20
g2
tp21
a(Vsmall
p22
g2
tp23
a(Vsized
p24
g2
tp25
a(Vunsalted.
p26
g2
tp27
a(VNot
p28
g2
tp29
a(Vsure
p30
g2
tp31
a(Vif
p32
g2
tp33
a(Vthis
p34
g2
tp35
a(Vwas
p36
g2
tp37
a(Van
p38
g2
tp39
a(Verror
p40
g2
tp41
a(Vor
p42
g2
tp43
a(Vif
p44
g2
tp45
a(Vthe
p46
g2
tp47
a(Vvendor
p48
g2
tp49
a(Vintended
p50
g2
tp51
a(Vto
p52
g2
tp53
a(Vrepresent
p54
g2
tp55
a(Vthe
p56
g2
tp57
a(Vproduct
p58
g2
tp59
a(Vas
p60
g2
tp61
a(V"Jumbo".
p62
g2
tp63
a.