(lp0
(VThis
p1
VO
p2
tp3
a(Vfood
p4
g2
tp5
a(Vis
p6
g2
tp7
a(Vgreat
p8
g2
tp9
a(V-
p10
g2
tp11
a(Vall
p12
g2
tp13
a(Vages
p14
g2
tp15
a(Vdogs.
p16
g2
tp17
a(VI
p18
g2
tp19
a(Vhave
p20
g2
tp21
a(Va
p22
g2
tp23
a(V3
p24
g2
tp25
a(Vyear
p26
g2
tp27
a(Vold
p28
g2
tp29
a(Vand
p30
g2
tp31
a(g22
g2
tp32
a(Vpuppy.
p33
g2
tp34
a(VThey
p35
g2
tp36
a(Vare
p37
g2
tp38
a(Vboth
p39
g2
tp40
a(Vso
p41
g2
tp42
a(Vsoft
p43
g2
tp44
a(Vand
p45
g2
tp46
a(Vhardly
p47
g2
tp48
a(Vever
p49
g2
tp50
a(Vget
p51
g2
tp52
a(Vsick.
p53
g2
tp54
a(VThe
p55
g2
tp56
a(Vfood
p57
g2
tp58
a(Vis
p59
g2
tp60
a(Vgood
p61
g2
tp62
a(Vespecially
p63
g2
tp64
a(Vwhen
p65
g2
tp66
a(Vyou
p67
g2
tp68
a(Vhave
p69
g2
tp70
a(VAmazon
p71
VORGANIZATION
p72
tp73
a(VPrime
p74
g2
tp75
a(Vshipping
p76
g2
tp77
a(V:)
p78
g2
tp79
a.