(lp0
(VWhile
p1
VO
p2
tp3
a(Vmy
p4
g2
tp5
a(Vdogs
p6
g2
tp7
a(Vlike
p8
g2
tp9
a(Vall
p10
g2
tp11
a(Vof
p12
g2
tp13
a(Vthe
p14
g2
tp15
a(Vflavors
p16
g2
tp17
a(Vthat
p18
g2
tp19
a(Vwe
p20
g2
tp21
a(Vhave
p22
g2
tp23
a(Vtried
p24
g2
tp25
a(Vof
p26
g2
tp27
a(Vthis
p28
g2
tp29
a(Vdog
p30
g2
tp31
a(Vfood,
p32
g2
tp33
a(Vfor
p34
g2
tp35
a(Vsome
p36
g2
tp37
a(Vreason
p38
g2
tp39
a(Vtheir
p40
g2
tp41
a(Vitching
p42
g2
tp43
a(Vincreased
p44
g2
tp45
a(Vwhen
p46
g2
tp47
a(VI
p48
g2
tp49
a(Vtried
p50
g2
tp51
a(Vthe
p52
g2
tp53
a(Vlamb
p54
g2
tp55
a(Vand
p56
g2
tp57
a(Vrice.
p58
g2
tp59
a(g48
g2
tp60
a(Vhave
p61
g2
tp62
a(Vsome
p63
g2
tp64
a(Vvery
p65
g2
tp66
a(Vitchy
p67
g2
tp68
a(Vdogs
p69
g2
tp70
a(Vand
p71
g2
tp72
a(Vam
p73
g2
tp74
a(Vgiving
p75
g2
tp76
a(Vthem
p77
g2
tp78
a(Va
p79
g2
tp80
a(Vlimited
p81
g2
tp82
a(Vingredient
p83
g2
tp84
a(Vdog
p85
g2
tp86
a(Vfood
p87
g2
tp88
a(Vto
p89
g2
tp90
a(Vtry
p91
g2
tp92
a(Vto
p93
g2
tp94
a(Vhelp.
p95
g2
tp96
a(VThe
p97
g2
tp98
a(Vduck
p99
g2
tp100
a(Vand
p101
g2
tp102
a(Vsweet
p103
g2
tp104
a(Vpotato
p105
g2
tp106
a(Vcut
p107
g2
tp108
a(Vdown
p109
g2
tp110
a(Von
p111
g2
tp112
a(Vthe
p113
g2
tp114
a(Vitching
p115
g2
tp116
a(Vsignificantly,
p117
g2
tp118
a(Vbut
p119
g2
tp120
a(Vwhen
p121
g2
tp122
a(Vwe
p123
g2
tp124
a(Vtried
p125
g2
tp126
a(Vlamb
p127
g2
tp128
a(Vand
p129
g2
tp130
a(Vrice
p131
g2
tp132
a(Vthey
p133
g2
tp134
a(Vstarted
p135
g2
tp136
a(Vitching
p137
g2
tp138
a(Vmore
p139
g2
tp140
a(Vonce
p141
g2
tp142
a(Vagain.
p143
g2
tp144
a(g48
g2
tp145
a(Vlike
p146
g2
tp147
a(VNatural
p148
g2
tp149
a(VBalance
p150
g2
tp151
a(Vfor
p152
g2
tp153
a(Vthe
p154
g2
tp155
a(Vquality
p156
g2
tp157
a(Vingredients.
p158
g2
tp159
a.