(lp0
(VMy
p1
VO
p2
tp3
a(Vdaughter
p4
g2
tp5
a(Vloves
p6
g2
tp7
a(Vtwizzlers
p8
g2
tp9
a(Vand
p10
g2
tp11
a(Vthis
p12
g2
tp13
a(Vshipment
p14
g2
tp15
a(Vof
p16
g2
tp17
a(Vsix
p18
g2
tp19
a(Vpounds
p20
g2
tp21
a(Vreally
p22
g2
tp23
a(Vhit
p24
g2
tp25
a(Vthe
p26
g2
tp27
a(Vspot.
p28
g2
tp29
a(VIt's
p30
g2
tp31
a(Vexactly
p32
g2
tp33
a(Vwhat
p34
g2
tp35
a(Vyou
p36
g2
tp37
a(Vwould
p38
g2
tp39
a(Vexpect...six
p40
g2
tp41
a(Vpackages
p42
g2
tp43
a(Vof
p44
g2
tp45
a(Vstrawberry
p46
g2
tp47
a(Vtwizzlers.
p48
g2
tp49
a.