(lp0
(VCandy
p1
VO
p2
tp3
a(Vwas
p4
g2
tp5
a(Vdelivered
p6
g2
tp7
a(Vvery
p8
g2
tp9
a(Vfast
p10
g2
tp11
a(Vand
p12
g2
tp13
a(Vwas
p14
g2
tp15
a(Vpurchased
p16
g2
tp17
a(Vat
p18
g2
tp19
a(Va
p20
g2
tp21
a(Vreasonable
p22
g2
tp23
a(Vprice.
p24
g2
tp25
a(VI
p26
g2
tp27
a(Vwas
p28
g2
tp29
a(Vhome
p30
g2
tp31
a(Vbound
p32
g2
tp33
a(Vand
p34
g2
tp35
a(Vunable
p36
g2
tp37
a(Vto
p38
g2
tp39
a(Vget
p40
g2
tp41
a(Vto
p42
g2
tp43
a(g20
g2
tp44
a(Vstore
p45
g2
tp46
a(Vso
p47
g2
tp48
a(Vthis
p49
g2
tp50
a(Vwas
p51
g2
tp52
a(Vperfect
p53
g2
tp54
a(Vfor
p55
g2
tp56
a(Vme.
p57
g2
tp58
a.